ARM GAS  C:\Users\vincent\AppData\Local\Temp\ccVGKpP9.s 			page 1


   1              		.syntax unified
   2              		.cpu cortex-m3
   3              		.fpu softvfp
   4              		.eabi_attribute 20, 1
   5              		.eabi_attribute 21, 1
   6              		.eabi_attribute 23, 3
   7              		.eabi_attribute 24, 1
   8              		.eabi_attribute 25, 1
   9              		.eabi_attribute 26, 1
  10              		.eabi_attribute 30, 1
  11              		.eabi_attribute 34, 1
  12              		.eabi_attribute 18, 4
  13              		.thumb
  14              		.syntax unified
  15              		.file	"cyfitter_cfg.c"
  16              		.text
  17              	.Ltext0:
  18              		.cfi_sections	.debug_frame
  19              		.section	.text.CyClockStartupError,"ax",%progbits
  20              		.align	2
  21              		.thumb
  22              		.thumb_func
  23              		.type	CyClockStartupError, %function
  24              	CyClockStartupError:
  25              	.LFB3:
  26              		.file 1 "Generated_Source\\PSoC5\\cyfitter_cfg.c"
   1:Generated_Source\PSoC5/cyfitter_cfg.c **** 
   2:Generated_Source\PSoC5/cyfitter_cfg.c **** /*******************************************************************************
   3:Generated_Source\PSoC5/cyfitter_cfg.c **** * File Name: cyfitter_cfg.c
   4:Generated_Source\PSoC5/cyfitter_cfg.c **** * 
   5:Generated_Source\PSoC5/cyfitter_cfg.c **** * PSoC Creator  4.4
   6:Generated_Source\PSoC5/cyfitter_cfg.c **** *
   7:Generated_Source\PSoC5/cyfitter_cfg.c **** * Description:
   8:Generated_Source\PSoC5/cyfitter_cfg.c **** * This file contains device initialization code.
   9:Generated_Source\PSoC5/cyfitter_cfg.c **** * Except for the user defined sections in CyClockStartupError(), this file should not be modified.
  10:Generated_Source\PSoC5/cyfitter_cfg.c **** * This file is automatically generated by PSoC Creator.
  11:Generated_Source\PSoC5/cyfitter_cfg.c **** *
  12:Generated_Source\PSoC5/cyfitter_cfg.c **** ********************************************************************************
  13:Generated_Source\PSoC5/cyfitter_cfg.c **** * Copyright (c) 2007-2020 Cypress Semiconductor.  All rights reserved.
  14:Generated_Source\PSoC5/cyfitter_cfg.c **** * You may use this file only in accordance with the license, terms, conditions, 
  15:Generated_Source\PSoC5/cyfitter_cfg.c **** * disclaimers, and limitations in the end user license agreement accompanying 
  16:Generated_Source\PSoC5/cyfitter_cfg.c **** * the software package with which this file was provided.
  17:Generated_Source\PSoC5/cyfitter_cfg.c **** ********************************************************************************/
  18:Generated_Source\PSoC5/cyfitter_cfg.c **** 
  19:Generated_Source\PSoC5/cyfitter_cfg.c **** #include <string.h>
  20:Generated_Source\PSoC5/cyfitter_cfg.c **** #include "cytypes.h"
  21:Generated_Source\PSoC5/cyfitter_cfg.c **** #include "cydevice_trm.h"
  22:Generated_Source\PSoC5/cyfitter_cfg.c **** #include "cyfitter.h"
  23:Generated_Source\PSoC5/cyfitter_cfg.c **** #include "CyLib.h"
  24:Generated_Source\PSoC5/cyfitter_cfg.c **** #include "cyfitter_cfg.h"
  25:Generated_Source\PSoC5/cyfitter_cfg.c **** #include "cyapicallbacks.h"
  26:Generated_Source\PSoC5/cyfitter_cfg.c **** 
  27:Generated_Source\PSoC5/cyfitter_cfg.c **** #define CY_NEED_CYCLOCKSTARTUPERROR 1
  28:Generated_Source\PSoC5/cyfitter_cfg.c **** 
  29:Generated_Source\PSoC5/cyfitter_cfg.c **** 
  30:Generated_Source\PSoC5/cyfitter_cfg.c **** #if defined(__GNUC__) || defined(__ARMCC_VERSION)
  31:Generated_Source\PSoC5/cyfitter_cfg.c ****     #define CYPACKED 
ARM GAS  C:\Users\vincent\AppData\Local\Temp\ccVGKpP9.s 			page 2


  32:Generated_Source\PSoC5/cyfitter_cfg.c ****     #define CYPACKED_ATTR __attribute__ ((packed))
  33:Generated_Source\PSoC5/cyfitter_cfg.c ****     #define CYALIGNED __attribute__ ((aligned))
  34:Generated_Source\PSoC5/cyfitter_cfg.c ****     #define CY_CFG_UNUSED __attribute__ ((unused))
  35:Generated_Source\PSoC5/cyfitter_cfg.c ****     #ifndef CY_CFG_SECTION
  36:Generated_Source\PSoC5/cyfitter_cfg.c ****         #define CY_CFG_SECTION __attribute__ ((section(".psocinit")))
  37:Generated_Source\PSoC5/cyfitter_cfg.c ****     #endif
  38:Generated_Source\PSoC5/cyfitter_cfg.c ****     
  39:Generated_Source\PSoC5/cyfitter_cfg.c ****     #if defined(__ARMCC_VERSION)
  40:Generated_Source\PSoC5/cyfitter_cfg.c ****         #define CY_CFG_MEMORY_BARRIER() __memory_changed()
  41:Generated_Source\PSoC5/cyfitter_cfg.c ****     #else
  42:Generated_Source\PSoC5/cyfitter_cfg.c ****         #define CY_CFG_MEMORY_BARRIER() __sync_synchronize()
  43:Generated_Source\PSoC5/cyfitter_cfg.c ****     #endif
  44:Generated_Source\PSoC5/cyfitter_cfg.c ****     
  45:Generated_Source\PSoC5/cyfitter_cfg.c **** #elif defined(__ICCARM__)
  46:Generated_Source\PSoC5/cyfitter_cfg.c ****     #include <intrinsics.h>
  47:Generated_Source\PSoC5/cyfitter_cfg.c **** 
  48:Generated_Source\PSoC5/cyfitter_cfg.c ****     #define CYPACKED __packed
  49:Generated_Source\PSoC5/cyfitter_cfg.c ****     #define CYPACKED_ATTR 
  50:Generated_Source\PSoC5/cyfitter_cfg.c ****     #define CYALIGNED _Pragma("data_alignment=4")
  51:Generated_Source\PSoC5/cyfitter_cfg.c ****     #define CY_CFG_UNUSED _Pragma("diag_suppress=Pe177")
  52:Generated_Source\PSoC5/cyfitter_cfg.c ****     #define CY_CFG_SECTION _Pragma("location=\".psocinit\"")
  53:Generated_Source\PSoC5/cyfitter_cfg.c ****     
  54:Generated_Source\PSoC5/cyfitter_cfg.c ****     #define CY_CFG_MEMORY_BARRIER() __DMB()
  55:Generated_Source\PSoC5/cyfitter_cfg.c ****     
  56:Generated_Source\PSoC5/cyfitter_cfg.c **** #else
  57:Generated_Source\PSoC5/cyfitter_cfg.c ****     #error Unsupported toolchain
  58:Generated_Source\PSoC5/cyfitter_cfg.c **** #endif
  59:Generated_Source\PSoC5/cyfitter_cfg.c **** 
  60:Generated_Source\PSoC5/cyfitter_cfg.c **** #ifndef CYCODE
  61:Generated_Source\PSoC5/cyfitter_cfg.c ****     #define CYCODE
  62:Generated_Source\PSoC5/cyfitter_cfg.c **** #endif
  63:Generated_Source\PSoC5/cyfitter_cfg.c **** #ifndef CYDATA
  64:Generated_Source\PSoC5/cyfitter_cfg.c ****     #define CYDATA
  65:Generated_Source\PSoC5/cyfitter_cfg.c **** #endif
  66:Generated_Source\PSoC5/cyfitter_cfg.c **** #ifndef CYFAR
  67:Generated_Source\PSoC5/cyfitter_cfg.c ****     #define CYFAR
  68:Generated_Source\PSoC5/cyfitter_cfg.c **** #endif
  69:Generated_Source\PSoC5/cyfitter_cfg.c **** #ifndef CYXDATA
  70:Generated_Source\PSoC5/cyfitter_cfg.c ****     #define CYXDATA
  71:Generated_Source\PSoC5/cyfitter_cfg.c **** #endif
  72:Generated_Source\PSoC5/cyfitter_cfg.c **** 
  73:Generated_Source\PSoC5/cyfitter_cfg.c **** 
  74:Generated_Source\PSoC5/cyfitter_cfg.c **** CY_CFG_UNUSED
  75:Generated_Source\PSoC5/cyfitter_cfg.c **** static void CYMEMZERO(void *s, size_t n);
  76:Generated_Source\PSoC5/cyfitter_cfg.c **** CY_CFG_UNUSED
  77:Generated_Source\PSoC5/cyfitter_cfg.c **** static void CYMEMZERO(void *s, size_t n)
  78:Generated_Source\PSoC5/cyfitter_cfg.c **** {
  79:Generated_Source\PSoC5/cyfitter_cfg.c **** 	(void)memset(s, 0, n);
  80:Generated_Source\PSoC5/cyfitter_cfg.c **** }
  81:Generated_Source\PSoC5/cyfitter_cfg.c **** CY_CFG_UNUSED
  82:Generated_Source\PSoC5/cyfitter_cfg.c **** static void CYCONFIGCPY(void *dest, const void *src, size_t n);
  83:Generated_Source\PSoC5/cyfitter_cfg.c **** CY_CFG_UNUSED
  84:Generated_Source\PSoC5/cyfitter_cfg.c **** static void CYCONFIGCPY(void *dest, const void *src, size_t n)
  85:Generated_Source\PSoC5/cyfitter_cfg.c **** {
  86:Generated_Source\PSoC5/cyfitter_cfg.c **** 	(void)memcpy(dest, src, n);
  87:Generated_Source\PSoC5/cyfitter_cfg.c **** }
  88:Generated_Source\PSoC5/cyfitter_cfg.c **** CY_CFG_UNUSED
ARM GAS  C:\Users\vincent\AppData\Local\Temp\ccVGKpP9.s 			page 3


  89:Generated_Source\PSoC5/cyfitter_cfg.c **** static void CYCONFIGCPYCODE(void *dest, const void *src, size_t n);
  90:Generated_Source\PSoC5/cyfitter_cfg.c **** CY_CFG_UNUSED
  91:Generated_Source\PSoC5/cyfitter_cfg.c **** static void CYCONFIGCPYCODE(void *dest, const void *src, size_t n)
  92:Generated_Source\PSoC5/cyfitter_cfg.c **** {
  93:Generated_Source\PSoC5/cyfitter_cfg.c **** 	(void)memcpy(dest, src, n);
  94:Generated_Source\PSoC5/cyfitter_cfg.c **** }
  95:Generated_Source\PSoC5/cyfitter_cfg.c **** 
  96:Generated_Source\PSoC5/cyfitter_cfg.c **** 
  97:Generated_Source\PSoC5/cyfitter_cfg.c **** 
  98:Generated_Source\PSoC5/cyfitter_cfg.c **** 
  99:Generated_Source\PSoC5/cyfitter_cfg.c **** /* Clock startup error codes                                                   */
 100:Generated_Source\PSoC5/cyfitter_cfg.c **** #define CYCLOCKSTART_NO_ERROR    0u
 101:Generated_Source\PSoC5/cyfitter_cfg.c **** #define CYCLOCKSTART_XTAL_ERROR  1u
 102:Generated_Source\PSoC5/cyfitter_cfg.c **** #define CYCLOCKSTART_32KHZ_ERROR 2u
 103:Generated_Source\PSoC5/cyfitter_cfg.c **** #define CYCLOCKSTART_PLL_ERROR   3u
 104:Generated_Source\PSoC5/cyfitter_cfg.c **** #define CYCLOCKSTART_FLL_ERROR   4u
 105:Generated_Source\PSoC5/cyfitter_cfg.c **** #define CYCLOCKSTART_WCO_ERROR   5u
 106:Generated_Source\PSoC5/cyfitter_cfg.c **** 
 107:Generated_Source\PSoC5/cyfitter_cfg.c **** 
 108:Generated_Source\PSoC5/cyfitter_cfg.c **** #ifdef CY_NEED_CYCLOCKSTARTUPERROR
 109:Generated_Source\PSoC5/cyfitter_cfg.c **** /*******************************************************************************
 110:Generated_Source\PSoC5/cyfitter_cfg.c **** * Function Name: CyClockStartupError
 111:Generated_Source\PSoC5/cyfitter_cfg.c **** ********************************************************************************
 112:Generated_Source\PSoC5/cyfitter_cfg.c **** * Summary:
 113:Generated_Source\PSoC5/cyfitter_cfg.c **** *  If an error is encountered during clock configuration (crystal startup error,
 114:Generated_Source\PSoC5/cyfitter_cfg.c **** *  PLL lock error, etc.), the system will end up here.  Unless reimplemented by
 115:Generated_Source\PSoC5/cyfitter_cfg.c **** *  the customer, this function will stop in an infinite loop.
 116:Generated_Source\PSoC5/cyfitter_cfg.c **** *
 117:Generated_Source\PSoC5/cyfitter_cfg.c **** * Parameters:
 118:Generated_Source\PSoC5/cyfitter_cfg.c **** *   void
 119:Generated_Source\PSoC5/cyfitter_cfg.c **** *
 120:Generated_Source\PSoC5/cyfitter_cfg.c **** * Return:
 121:Generated_Source\PSoC5/cyfitter_cfg.c **** *   void
 122:Generated_Source\PSoC5/cyfitter_cfg.c **** *
 123:Generated_Source\PSoC5/cyfitter_cfg.c **** *******************************************************************************/
 124:Generated_Source\PSoC5/cyfitter_cfg.c **** CY_CFG_UNUSED
 125:Generated_Source\PSoC5/cyfitter_cfg.c **** static void CyClockStartupError(uint8 errorCode);
 126:Generated_Source\PSoC5/cyfitter_cfg.c **** CY_CFG_UNUSED
 127:Generated_Source\PSoC5/cyfitter_cfg.c **** static void CyClockStartupError(uint8 errorCode)
 128:Generated_Source\PSoC5/cyfitter_cfg.c **** {
  27              		.loc 1 128 0
  28              		.cfi_startproc
  29              		@ Volatile: function does not return.
  30              		@ args = 0, pretend = 0, frame = 0
  31              		@ frame_needed = 0, uses_anonymous_args = 0
  32              		@ link register save eliminated.
  33              	.LVL0:
  34              	.L2:
  35 0000 FEE7     		b	.L2
  36              		.cfi_endproc
  37              	.LFE3:
  38              		.size	CyClockStartupError, .-CyClockStartupError
  39 0002 00BF     		.section	.text.cfg_write_bytes32,"ax",%progbits
  40              		.align	2
  41              		.thumb
  42              		.thumb_func
  43              		.type	cfg_write_bytes32, %function
ARM GAS  C:\Users\vincent\AppData\Local\Temp\ccVGKpP9.s 			page 4


  44              	cfg_write_bytes32:
  45              	.LFB4:
 129:Generated_Source\PSoC5/cyfitter_cfg.c ****     /* To remove the compiler warning if errorCode not used.                */
 130:Generated_Source\PSoC5/cyfitter_cfg.c ****     errorCode = errorCode;
 131:Generated_Source\PSoC5/cyfitter_cfg.c **** 
 132:Generated_Source\PSoC5/cyfitter_cfg.c ****     /* If we have a clock startup error (bad MHz crystal, PLL lock, etc.),  */
 133:Generated_Source\PSoC5/cyfitter_cfg.c ****     /* we will end up here to allow the customer to implement something to  */
 134:Generated_Source\PSoC5/cyfitter_cfg.c ****     /* deal with the clock condition.                                       */
 135:Generated_Source\PSoC5/cyfitter_cfg.c **** 
 136:Generated_Source\PSoC5/cyfitter_cfg.c **** #ifdef CY_CFG_CLOCK_STARTUP_ERROR_CALLBACK
 137:Generated_Source\PSoC5/cyfitter_cfg.c ****     CY_CFG_Clock_Startup_ErrorCallback();
 138:Generated_Source\PSoC5/cyfitter_cfg.c **** #else
 139:Generated_Source\PSoC5/cyfitter_cfg.c ****     /*  If not using CY_CFG_CLOCK_STARTUP_ERROR_CALLBACK, place your clock startup code here. */
 140:Generated_Source\PSoC5/cyfitter_cfg.c ****     /* `#START CyClockStartupError` */
 141:Generated_Source\PSoC5/cyfitter_cfg.c **** 
 142:Generated_Source\PSoC5/cyfitter_cfg.c **** 
 143:Generated_Source\PSoC5/cyfitter_cfg.c **** 
 144:Generated_Source\PSoC5/cyfitter_cfg.c ****     /* `#END` */
 145:Generated_Source\PSoC5/cyfitter_cfg.c **** 
 146:Generated_Source\PSoC5/cyfitter_cfg.c ****     while(1) {}
 147:Generated_Source\PSoC5/cyfitter_cfg.c **** #endif /* CY_CFG_CLOCK_STARTUP_ERROR_CALLBACK */
 148:Generated_Source\PSoC5/cyfitter_cfg.c **** }
 149:Generated_Source\PSoC5/cyfitter_cfg.c **** #endif
 150:Generated_Source\PSoC5/cyfitter_cfg.c **** 
 151:Generated_Source\PSoC5/cyfitter_cfg.c **** #define CY_CFG_BASE_ADDR_COUNT 21u
 152:Generated_Source\PSoC5/cyfitter_cfg.c **** CYPACKED typedef struct
 153:Generated_Source\PSoC5/cyfitter_cfg.c **** {
 154:Generated_Source\PSoC5/cyfitter_cfg.c **** 	uint8 offset;
 155:Generated_Source\PSoC5/cyfitter_cfg.c **** 	uint8 value;
 156:Generated_Source\PSoC5/cyfitter_cfg.c **** } CYPACKED_ATTR cy_cfg_addrvalue_t;
 157:Generated_Source\PSoC5/cyfitter_cfg.c **** 
 158:Generated_Source\PSoC5/cyfitter_cfg.c **** #define cy_cfg_addr_table ((const uint32 CYFAR *)0x48000000u)
 159:Generated_Source\PSoC5/cyfitter_cfg.c **** #define cy_cfg_data_table ((const cy_cfg_addrvalue_t CYFAR *)0x48000054u)
 160:Generated_Source\PSoC5/cyfitter_cfg.c **** 
 161:Generated_Source\PSoC5/cyfitter_cfg.c **** /* UDB_0_1_0_CONFIG Address: CYDEV_UCFG_B1_P4_U1_BASE Size (bytes): 128 */
 162:Generated_Source\PSoC5/cyfitter_cfg.c **** #define BS_UDB_0_1_0_CONFIG_VAL ((const uint8 CYFAR *)0x480003FCu)
 163:Generated_Source\PSoC5/cyfitter_cfg.c **** 
 164:Generated_Source\PSoC5/cyfitter_cfg.c **** /* IOPINS0_7 Address: CYREG_PRT12_DR Size (bytes): 10 */
 165:Generated_Source\PSoC5/cyfitter_cfg.c **** #define BS_IOPINS0_7_VAL ((const uint8 CYFAR *)0x4800047Cu)
 166:Generated_Source\PSoC5/cyfitter_cfg.c **** 
 167:Generated_Source\PSoC5/cyfitter_cfg.c **** /* IOPINS0_8 Address: CYREG_PRT15_DM0 Size (bytes): 8 */
 168:Generated_Source\PSoC5/cyfitter_cfg.c **** #define BS_IOPINS0_8_VAL ((const uint8 CYFAR *)0x48000488u)
 169:Generated_Source\PSoC5/cyfitter_cfg.c **** 
 170:Generated_Source\PSoC5/cyfitter_cfg.c **** /* IOPINS0_1 Address: CYREG_PRT1_DM0 Size (bytes): 8 */
 171:Generated_Source\PSoC5/cyfitter_cfg.c **** #define BS_IOPINS0_1_VAL ((const uint8 CYFAR *)0x48000490u)
 172:Generated_Source\PSoC5/cyfitter_cfg.c **** 
 173:Generated_Source\PSoC5/cyfitter_cfg.c **** /* IOPINS0_2 Address: CYREG_PRT2_DM0 Size (bytes): 8 */
 174:Generated_Source\PSoC5/cyfitter_cfg.c **** #define BS_IOPINS0_2_VAL ((const uint8 CYFAR *)0x48000498u)
 175:Generated_Source\PSoC5/cyfitter_cfg.c **** 
 176:Generated_Source\PSoC5/cyfitter_cfg.c **** /* IOPINS0_3 Address: CYREG_PRT3_DM0 Size (bytes): 8 */
 177:Generated_Source\PSoC5/cyfitter_cfg.c **** #define BS_IOPINS0_3_VAL ((const uint8 CYFAR *)0x480004A0u)
 178:Generated_Source\PSoC5/cyfitter_cfg.c **** 
 179:Generated_Source\PSoC5/cyfitter_cfg.c **** /* CYDEV_CLKDIST_ACFG0_CFG0 Address: CYREG_CLKDIST_ACFG0_CFG0 Size (bytes): 4 */
 180:Generated_Source\PSoC5/cyfitter_cfg.c **** #define BS_CYDEV_CLKDIST_ACFG0_CFG0_VAL ((const uint8 CYFAR *)0x480004A8u)
 181:Generated_Source\PSoC5/cyfitter_cfg.c **** 
 182:Generated_Source\PSoC5/cyfitter_cfg.c **** 
 183:Generated_Source\PSoC5/cyfitter_cfg.c **** /*******************************************************************************
ARM GAS  C:\Users\vincent\AppData\Local\Temp\ccVGKpP9.s 			page 5


 184:Generated_Source\PSoC5/cyfitter_cfg.c **** * Function Name: cfg_write_bytes32
 185:Generated_Source\PSoC5/cyfitter_cfg.c **** ********************************************************************************
 186:Generated_Source\PSoC5/cyfitter_cfg.c **** * Summary:
 187:Generated_Source\PSoC5/cyfitter_cfg.c **** *  This function is used for setting up the chip configuration areas that
 188:Generated_Source\PSoC5/cyfitter_cfg.c **** *  contain relatively sparse data.
 189:Generated_Source\PSoC5/cyfitter_cfg.c **** *
 190:Generated_Source\PSoC5/cyfitter_cfg.c **** * Parameters:
 191:Generated_Source\PSoC5/cyfitter_cfg.c **** *   void
 192:Generated_Source\PSoC5/cyfitter_cfg.c **** *
 193:Generated_Source\PSoC5/cyfitter_cfg.c **** * Return:
 194:Generated_Source\PSoC5/cyfitter_cfg.c **** *   void
 195:Generated_Source\PSoC5/cyfitter_cfg.c **** *
 196:Generated_Source\PSoC5/cyfitter_cfg.c **** *******************************************************************************/
 197:Generated_Source\PSoC5/cyfitter_cfg.c **** static void cfg_write_bytes32(const uint32 addr_table[], const cy_cfg_addrvalue_t data_table[]);
 198:Generated_Source\PSoC5/cyfitter_cfg.c **** static void cfg_write_bytes32(const uint32 addr_table[], const cy_cfg_addrvalue_t data_table[])
 199:Generated_Source\PSoC5/cyfitter_cfg.c **** {
  46              		.loc 1 199 0
  47              		.cfi_startproc
  48              		@ args = 0, pretend = 0, frame = 0
  49              		@ frame_needed = 0, uses_anonymous_args = 0
  50              		@ link register save eliminated.
  51              	.LVL1:
  52              		.loc 1 199 0
  53 0000 F0B4     		push	{r4, r5, r6, r7}
  54              		.cfi_def_cfa_offset 16
  55              		.cfi_offset 4, -16
  56              		.cfi_offset 5, -12
  57              		.cfi_offset 6, -8
  58              		.cfi_offset 7, -4
  59              	.LVL2:
 200:Generated_Source\PSoC5/cyfitter_cfg.c **** 	/* For 32-bit little-endian architectures */
 201:Generated_Source\PSoC5/cyfitter_cfg.c **** 	uint32 i, j = 0u;
  60              		.loc 1 201 0
  61 0002 0022     		movs	r2, #0
 202:Generated_Source\PSoC5/cyfitter_cfg.c **** 	for (i = 0u; i < CY_CFG_BASE_ADDR_COUNT; i++)
  62              		.loc 1 202 0
  63 0004 1746     		mov	r7, r2
  64 0006 11E0     		b	.L4
  65              	.LVL3:
  66              	.L7:
  67              	.LBB2:
 203:Generated_Source\PSoC5/cyfitter_cfg.c **** 	{
 204:Generated_Source\PSoC5/cyfitter_cfg.c **** 		uint32 baseAddr = addr_table[i];
  68              		.loc 1 204 0
  69 0008 50F82760 		ldr	r6, [r0, r7, lsl #2]
  70              	.LVL4:
 205:Generated_Source\PSoC5/cyfitter_cfg.c **** 		uint8 count = (uint8)baseAddr;
  71              		.loc 1 205 0
  72 000c F3B2     		uxtb	r3, r6
  73              	.LVL5:
 206:Generated_Source\PSoC5/cyfitter_cfg.c **** 		baseAddr &= 0xFFFFFF00u;
  74              		.loc 1 206 0
  75 000e 26F0FF06 		bic	r6, r6, #255
  76              	.LVL6:
 207:Generated_Source\PSoC5/cyfitter_cfg.c **** 		while (count != 0u)
  77              		.loc 1 207 0
  78 0012 08E0     		b	.L5
ARM GAS  C:\Users\vincent\AppData\Local\Temp\ccVGKpP9.s 			page 6


  79              	.L6:
 208:Generated_Source\PSoC5/cyfitter_cfg.c **** 		{
 209:Generated_Source\PSoC5/cyfitter_cfg.c **** 			CY_SET_REG8((void *)(baseAddr + data_table[j].offset), data_table[j].value);
  80              		.loc 1 209 0
  81 0014 01EB4205 		add	r5, r1, r2, lsl #1
  82 0018 11F81240 		ldrb	r4, [r1, r2, lsl #1]	@ zero_extendqisi2
  83 001c 6D78     		ldrb	r5, [r5, #1]	@ zero_extendqisi2
  84 001e A555     		strb	r5, [r4, r6]
 210:Generated_Source\PSoC5/cyfitter_cfg.c **** 			j++;
  85              		.loc 1 210 0
  86 0020 0132     		adds	r2, r2, #1
  87              	.LVL7:
 211:Generated_Source\PSoC5/cyfitter_cfg.c **** 			count--;
  88              		.loc 1 211 0
  89 0022 013B     		subs	r3, r3, #1
  90              	.LVL8:
  91 0024 DBB2     		uxtb	r3, r3
  92              	.LVL9:
  93              	.L5:
 207:Generated_Source\PSoC5/cyfitter_cfg.c **** 		{
  94              		.loc 1 207 0
  95 0026 002B     		cmp	r3, #0
  96 0028 F4D1     		bne	.L6
  97              	.LBE2:
 202:Generated_Source\PSoC5/cyfitter_cfg.c **** 	{
  98              		.loc 1 202 0 discriminator 2
  99 002a 0137     		adds	r7, r7, #1
 100              	.LVL10:
 101              	.L4:
 202:Generated_Source\PSoC5/cyfitter_cfg.c **** 	{
 102              		.loc 1 202 0 is_stmt 0 discriminator 1
 103 002c 142F     		cmp	r7, #20
 104 002e EBD9     		bls	.L7
 212:Generated_Source\PSoC5/cyfitter_cfg.c **** 		}
 213:Generated_Source\PSoC5/cyfitter_cfg.c **** 	}
 214:Generated_Source\PSoC5/cyfitter_cfg.c **** }
 105              		.loc 1 214 0 is_stmt 1
 106 0030 F0BC     		pop	{r4, r5, r6, r7}
 107              		.cfi_restore 7
 108              		.cfi_restore 6
 109              		.cfi_restore 5
 110              		.cfi_restore 4
 111              		.cfi_def_cfa_offset 0
 112              	.LVL11:
 113 0032 7047     		bx	lr
 114              		.cfi_endproc
 115              	.LFE4:
 116              		.size	cfg_write_bytes32, .-cfg_write_bytes32
 117              		.section	.text.CYMEMZERO,"ax",%progbits
 118              		.align	2
 119              		.thumb
 120              		.thumb_func
 121              		.type	CYMEMZERO, %function
 122              	CYMEMZERO:
 123              	.LFB0:
  78:Generated_Source\PSoC5/cyfitter_cfg.c **** 	(void)memset(s, 0, n);
 124              		.loc 1 78 0
ARM GAS  C:\Users\vincent\AppData\Local\Temp\ccVGKpP9.s 			page 7


 125              		.cfi_startproc
 126              		@ args = 0, pretend = 0, frame = 0
 127              		@ frame_needed = 0, uses_anonymous_args = 0
 128              	.LVL12:
 129 0000 08B5     		push	{r3, lr}
 130              		.cfi_def_cfa_offset 8
 131              		.cfi_offset 3, -8
 132              		.cfi_offset 14, -4
  79:Generated_Source\PSoC5/cyfitter_cfg.c **** }
 133              		.loc 1 79 0
 134 0002 0A46     		mov	r2, r1
 135 0004 0021     		movs	r1, #0
 136              	.LVL13:
 137 0006 FFF7FEFF 		bl	memset
 138              	.LVL14:
 139 000a 08BD     		pop	{r3, pc}
 140              		.cfi_endproc
 141              	.LFE0:
 142              		.size	CYMEMZERO, .-CYMEMZERO
 143              		.section	.text.AnalogSetDefault,"ax",%progbits
 144              		.align	2
 145              		.thumb
 146              		.thumb_func
 147              		.type	AnalogSetDefault, %function
 148              	AnalogSetDefault:
 149              	.LFB6:
 215:Generated_Source\PSoC5/cyfitter_cfg.c **** 
 216:Generated_Source\PSoC5/cyfitter_cfg.c **** /*******************************************************************************
 217:Generated_Source\PSoC5/cyfitter_cfg.c **** * Function Name: ClockSetup
 218:Generated_Source\PSoC5/cyfitter_cfg.c **** ********************************************************************************
 219:Generated_Source\PSoC5/cyfitter_cfg.c **** *
 220:Generated_Source\PSoC5/cyfitter_cfg.c **** * Summary:
 221:Generated_Source\PSoC5/cyfitter_cfg.c **** *  Performs the initialization of all of the clocks in the device based on the
 222:Generated_Source\PSoC5/cyfitter_cfg.c **** *  settings in the Clock tab of the DWR.  This includes enabling the requested
 223:Generated_Source\PSoC5/cyfitter_cfg.c **** *  clocks and setting the necessary dividers to produce the desired frequency. 
 224:Generated_Source\PSoC5/cyfitter_cfg.c **** *
 225:Generated_Source\PSoC5/cyfitter_cfg.c **** * Parameters:
 226:Generated_Source\PSoC5/cyfitter_cfg.c **** *  void
 227:Generated_Source\PSoC5/cyfitter_cfg.c **** *
 228:Generated_Source\PSoC5/cyfitter_cfg.c **** * Return:
 229:Generated_Source\PSoC5/cyfitter_cfg.c **** *  void
 230:Generated_Source\PSoC5/cyfitter_cfg.c **** *
 231:Generated_Source\PSoC5/cyfitter_cfg.c **** *******************************************************************************/
 232:Generated_Source\PSoC5/cyfitter_cfg.c **** static void ClockSetup(void);
 233:Generated_Source\PSoC5/cyfitter_cfg.c **** static void ClockSetup(void)
 234:Generated_Source\PSoC5/cyfitter_cfg.c **** {
 235:Generated_Source\PSoC5/cyfitter_cfg.c **** 	uint32 timeout;
 236:Generated_Source\PSoC5/cyfitter_cfg.c **** 	uint8 pllLock;
 237:Generated_Source\PSoC5/cyfitter_cfg.c **** 
 238:Generated_Source\PSoC5/cyfitter_cfg.c **** 
 239:Generated_Source\PSoC5/cyfitter_cfg.c **** 	/* Configure Digital Clocks based on settings from Clock DWR */
 240:Generated_Source\PSoC5/cyfitter_cfg.c **** 	CY_SET_XTND_REG16((void CYFAR *)(CYREG_CLKDIST_DCFG0_CFG0), 0x004Au);
 241:Generated_Source\PSoC5/cyfitter_cfg.c **** 	CY_SET_XTND_REG8((void CYFAR *)(CYREG_CLKDIST_DCFG0_CFG0 + 0x2u), 0x18u);
 242:Generated_Source\PSoC5/cyfitter_cfg.c **** 	CY_SET_XTND_REG16((void CYFAR *)(CYREG_CLKDIST_DCFG1_CFG0), 0x00A2u);
 243:Generated_Source\PSoC5/cyfitter_cfg.c **** 	CY_SET_XTND_REG8((void CYFAR *)(CYREG_CLKDIST_DCFG1_CFG0 + 0x2u), 0x18u);
 244:Generated_Source\PSoC5/cyfitter_cfg.c **** 
 245:Generated_Source\PSoC5/cyfitter_cfg.c **** 	/* Configure Analog Clocks based on settings from Clock DWR */
ARM GAS  C:\Users\vincent\AppData\Local\Temp\ccVGKpP9.s 			page 8


 246:Generated_Source\PSoC5/cyfitter_cfg.c **** 	CYCONFIGCPY((void CYFAR *)(CYREG_CLKDIST_ACFG0_CFG0), (const void CYFAR *)(BS_CYDEV_CLKDIST_ACFG0_
 247:Generated_Source\PSoC5/cyfitter_cfg.c **** 
 248:Generated_Source\PSoC5/cyfitter_cfg.c **** 	/* Configure ILO based on settings from Clock DWR */
 249:Generated_Source\PSoC5/cyfitter_cfg.c **** 	CY_SET_XTND_REG8((void CYFAR *)(CYREG_SLOWCLK_ILO_CR0), 0x02u);
 250:Generated_Source\PSoC5/cyfitter_cfg.c **** 	CY_SET_XTND_REG8((void CYFAR *)(CYREG_CLKDIST_CR), 0x08u);
 251:Generated_Source\PSoC5/cyfitter_cfg.c **** 
 252:Generated_Source\PSoC5/cyfitter_cfg.c **** 	/* Configure IMO based on settings from Clock DWR */
 253:Generated_Source\PSoC5/cyfitter_cfg.c **** 	CY_SET_XTND_REG8((void CYFAR *)(CYREG_FASTCLK_IMO_CR), 0x03u);
 254:Generated_Source\PSoC5/cyfitter_cfg.c **** 	CY_SET_XTND_REG8((void CYFAR *)(CYREG_IMO_TR1), (CY_GET_XTND_REG8((void CYFAR *)CYREG_FLSHID_CUST_
 255:Generated_Source\PSoC5/cyfitter_cfg.c **** 
 256:Generated_Source\PSoC5/cyfitter_cfg.c **** 	/* Configure PLL based on settings from Clock DWR */
 257:Generated_Source\PSoC5/cyfitter_cfg.c **** 	CY_SET_XTND_REG16((void CYFAR *)(CYREG_FASTCLK_PLL_P), 0x024Bu);
 258:Generated_Source\PSoC5/cyfitter_cfg.c **** 	CY_SET_XTND_REG16((void CYFAR *)(CYREG_FASTCLK_PLL_CFG0), 0x2251u);
 259:Generated_Source\PSoC5/cyfitter_cfg.c **** 	/* Wait up to 250us for the PLL to lock */
 260:Generated_Source\PSoC5/cyfitter_cfg.c **** 	pllLock = 0u;
 261:Generated_Source\PSoC5/cyfitter_cfg.c **** 	for (timeout = 250u / 10u; (timeout > 0u) && (pllLock != 0x03u); timeout--)
 262:Generated_Source\PSoC5/cyfitter_cfg.c **** 	{ 
 263:Generated_Source\PSoC5/cyfitter_cfg.c **** 		pllLock = 0x03u & ((uint8)((uint8)pllLock << 1) | ((CY_GET_XTND_REG8((void CYFAR *)CYREG_FASTCLK_
 264:Generated_Source\PSoC5/cyfitter_cfg.c **** 		CyDelayCycles(10u * 48u); /* Delay 10us based on 48MHz clock */
 265:Generated_Source\PSoC5/cyfitter_cfg.c **** 	}
 266:Generated_Source\PSoC5/cyfitter_cfg.c **** 	/* If we ran out of time the PLL didn't lock so go to the error function */
 267:Generated_Source\PSoC5/cyfitter_cfg.c **** 	if (timeout == 0u)
 268:Generated_Source\PSoC5/cyfitter_cfg.c **** 	{
 269:Generated_Source\PSoC5/cyfitter_cfg.c **** 		CyClockStartupError(CYCLOCKSTART_PLL_ERROR);
 270:Generated_Source\PSoC5/cyfitter_cfg.c **** 	}
 271:Generated_Source\PSoC5/cyfitter_cfg.c **** 
 272:Generated_Source\PSoC5/cyfitter_cfg.c **** 	/* Configure Bus/Master Clock based on settings from Clock DWR */
 273:Generated_Source\PSoC5/cyfitter_cfg.c **** 	CY_SET_XTND_REG16((void CYFAR *)(CYREG_CLKDIST_MSTR0), 0x0100u);
 274:Generated_Source\PSoC5/cyfitter_cfg.c **** 	CY_SET_XTND_REG8((void CYFAR *)(CYREG_CLKDIST_MSTR0), 0x07u);
 275:Generated_Source\PSoC5/cyfitter_cfg.c **** 	CY_SET_XTND_REG8((void CYFAR *)(CYREG_CLKDIST_BCFG0), 0x00u);
 276:Generated_Source\PSoC5/cyfitter_cfg.c **** 	CY_SET_XTND_REG8((void CYFAR *)(CYREG_CLKDIST_BCFG2), 0x48u);
 277:Generated_Source\PSoC5/cyfitter_cfg.c **** 	CY_SET_XTND_REG8((void CYFAR *)(CYREG_CLKDIST_MSTR0), 0x00u);
 278:Generated_Source\PSoC5/cyfitter_cfg.c **** 	CY_SET_XTND_REG8((void CYFAR *)(CYREG_CLKDIST_LD), 0x02u);
 279:Generated_Source\PSoC5/cyfitter_cfg.c **** 	CY_SET_XTND_REG8((void CYFAR *)(CYREG_CLKDIST_DLY1), 0x04u);
 280:Generated_Source\PSoC5/cyfitter_cfg.c **** 
 281:Generated_Source\PSoC5/cyfitter_cfg.c **** 	CY_SET_XTND_REG8((void CYFAR *)(CYREG_PM_ACT_CFG2), ((CY_GET_XTND_REG8((void CYFAR *)CYREG_PM_ACT_
 282:Generated_Source\PSoC5/cyfitter_cfg.c **** 	CY_SET_XTND_REG8((void CYFAR *)(CYREG_PM_ACT_CFG1), ((CY_GET_XTND_REG8((void CYFAR *)CYREG_PM_ACT_
 283:Generated_Source\PSoC5/cyfitter_cfg.c **** 	CY_SET_XTND_REG8((void CYFAR *)(CYREG_PM_ACT_CFG0), ((CY_GET_XTND_REG8((void CYFAR *)CYREG_PM_ACT_
 284:Generated_Source\PSoC5/cyfitter_cfg.c **** }
 285:Generated_Source\PSoC5/cyfitter_cfg.c **** 
 286:Generated_Source\PSoC5/cyfitter_cfg.c **** 
 287:Generated_Source\PSoC5/cyfitter_cfg.c **** /* Analog API Functions */
 288:Generated_Source\PSoC5/cyfitter_cfg.c **** 
 289:Generated_Source\PSoC5/cyfitter_cfg.c **** 
 290:Generated_Source\PSoC5/cyfitter_cfg.c **** /*******************************************************************************
 291:Generated_Source\PSoC5/cyfitter_cfg.c **** * Function Name: AnalogSetDefault
 292:Generated_Source\PSoC5/cyfitter_cfg.c **** ********************************************************************************
 293:Generated_Source\PSoC5/cyfitter_cfg.c **** *
 294:Generated_Source\PSoC5/cyfitter_cfg.c **** * Summary:
 295:Generated_Source\PSoC5/cyfitter_cfg.c **** *  Sets up the analog portions of the chip to default values based on chip
 296:Generated_Source\PSoC5/cyfitter_cfg.c **** *  configuration options from the project.
 297:Generated_Source\PSoC5/cyfitter_cfg.c **** *
 298:Generated_Source\PSoC5/cyfitter_cfg.c **** * Parameters:
 299:Generated_Source\PSoC5/cyfitter_cfg.c **** *  void
 300:Generated_Source\PSoC5/cyfitter_cfg.c **** *
 301:Generated_Source\PSoC5/cyfitter_cfg.c **** * Return:
 302:Generated_Source\PSoC5/cyfitter_cfg.c **** *  void
ARM GAS  C:\Users\vincent\AppData\Local\Temp\ccVGKpP9.s 			page 9


 303:Generated_Source\PSoC5/cyfitter_cfg.c **** *
 304:Generated_Source\PSoC5/cyfitter_cfg.c **** *******************************************************************************/
 305:Generated_Source\PSoC5/cyfitter_cfg.c **** static void AnalogSetDefault(void);
 306:Generated_Source\PSoC5/cyfitter_cfg.c **** static void AnalogSetDefault(void)
 307:Generated_Source\PSoC5/cyfitter_cfg.c **** {
 150              		.loc 1 307 0
 151              		.cfi_startproc
 152              		@ args = 0, pretend = 0, frame = 0
 153              		@ frame_needed = 0, uses_anonymous_args = 0
 154 0000 F8B5     		push	{r3, r4, r5, r6, r7, lr}
 155              		.cfi_def_cfa_offset 24
 156              		.cfi_offset 3, -24
 157              		.cfi_offset 4, -20
 158              		.cfi_offset 5, -16
 159              		.cfi_offset 6, -12
 160              		.cfi_offset 7, -8
 161              		.cfi_offset 14, -4
 308:Generated_Source\PSoC5/cyfitter_cfg.c **** 	uint8 bg_xover_inl_trim = CY_GET_XTND_REG8((void CYFAR *)(CYREG_FLSHID_MFG_CFG_BG_XOVER_INL_TRIM +
 162              		.loc 1 308 0
 163 0002 134B     		ldr	r3, .L13
 164 0004 1B78     		ldrb	r3, [r3]	@ zero_extendqisi2
 165 0006 DBB2     		uxtb	r3, r3
 166              	.LVL15:
 309:Generated_Source\PSoC5/cyfitter_cfg.c **** 	uint8 cr4 = CY_GET_XTND_REG8((void CYFAR *)(CYREG_RESET_CR4));
 167              		.loc 1 309 0
 168 0008 124E     		ldr	r6, .L13+4
 169 000a 3478     		ldrb	r4, [r6]	@ zero_extendqisi2
 170 000c E4B2     		uxtb	r4, r4
 171              	.LVL16:
 310:Generated_Source\PSoC5/cyfitter_cfg.c **** 	uint8 cr5 = CY_GET_XTND_REG8((void CYFAR *)(CYREG_RESET_CR5));
 172              		.loc 1 310 0
 173 000e 124F     		ldr	r7, .L13+8
 174 0010 3D78     		ldrb	r5, [r7]	@ zero_extendqisi2
 175 0012 EDB2     		uxtb	r5, r5
 176              	.LVL17:
 311:Generated_Source\PSoC5/cyfitter_cfg.c **** 	CY_SET_XTND_REG8((void CYFAR *)(CYREG_BG_DFT0), (bg_xover_inl_trim & 0x07u));
 177              		.loc 1 311 0
 178 0014 03F00701 		and	r1, r3, #7
 179 0018 104A     		ldr	r2, .L13+12
 180 001a 1170     		strb	r1, [r2]
 312:Generated_Source\PSoC5/cyfitter_cfg.c **** 	CY_SET_XTND_REG8((void CYFAR *)(CYREG_BG_DFT1), ((bg_xover_inl_trim >> 4) & 0x0Fu));
 181              		.loc 1 312 0
 182 001c 1B09     		lsrs	r3, r3, #4
 183              	.LVL18:
 184 001e 0132     		adds	r2, r2, #1
 185 0020 1370     		strb	r3, [r2]
 313:Generated_Source\PSoC5/cyfitter_cfg.c **** 	/* Disable PRES while setting up SAR voltage reference */
 314:Generated_Source\PSoC5/cyfitter_cfg.c **** 	CY_SET_XTND_REG8((void CYFAR *)(CYREG_RESET_CR4), (cr4 | 0x03u));
 186              		.loc 1 314 0
 187 0022 44F00303 		orr	r3, r4, #3
 188 0026 3370     		strb	r3, [r6]
 315:Generated_Source\PSoC5/cyfitter_cfg.c **** 	CY_SET_XTND_REG8((void CYFAR *)(CYREG_RESET_CR5), (cr5 | 0x03u));
 189              		.loc 1 315 0
 190 0028 45F00303 		orr	r3, r5, #3
 191 002c 3B70     		strb	r3, [r7]
 316:Generated_Source\PSoC5/cyfitter_cfg.c **** 	CY_SET_XTND_REG8((void CYFAR *)CYREG_SAR1_CSR1, 0x40u);
 192              		.loc 1 316 0
ARM GAS  C:\Users\vincent\AppData\Local\Temp\ccVGKpP9.s 			page 10


 193 002e 4023     		movs	r3, #64
 194 0030 9A32     		adds	r2, r2, #154
 195 0032 1370     		strb	r3, [r2]
 317:Generated_Source\PSoC5/cyfitter_cfg.c **** 	CY_SET_XTND_REG8((void CYFAR *)CYREG_SAR1_CSR3, 0x40u);
 196              		.loc 1 317 0
 197 0034 0232     		adds	r2, r2, #2
 198 0036 1370     		strb	r3, [r2]
 318:Generated_Source\PSoC5/cyfitter_cfg.c **** 	CY_SET_XTND_REG8((void CYFAR *)CYREG_SAR1_SW3, 0x20u);
 199              		.loc 1 318 0
 200 0038 2022     		movs	r2, #32
 201 003a 094B     		ldr	r3, .L13+16
 202 003c 1A70     		strb	r2, [r3]
 319:Generated_Source\PSoC5/cyfitter_cfg.c **** 	CyDelayUs(10u); /* Allow vref to settle before re-enabling PRES */
 203              		.loc 1 319 0
 204 003e 0A20     		movs	r0, #10
 205 0040 FFF7FEFF 		bl	CyDelayUs
 206              	.LVL19:
 320:Generated_Source\PSoC5/cyfitter_cfg.c **** 	CY_SET_XTND_REG8((void CYFAR *)(CYREG_RESET_CR5), (cr5));
 207              		.loc 1 320 0
 208 0044 3D70     		strb	r5, [r7]
 321:Generated_Source\PSoC5/cyfitter_cfg.c **** 	CY_SET_XTND_REG8((void CYFAR *)(CYREG_RESET_CR4), (cr4));
 209              		.loc 1 321 0
 210 0046 3470     		strb	r4, [r6]
 322:Generated_Source\PSoC5/cyfitter_cfg.c **** 	CY_SET_XTND_REG8((void CYFAR *)CYREG_PUMP_CR0, 0x44u);
 211              		.loc 1 322 0
 212 0048 4422     		movs	r2, #68
 213 004a 064B     		ldr	r3, .L13+20
 214 004c 1A70     		strb	r2, [r3]
 215 004e F8BD     		pop	{r3, r4, r5, r6, r7, pc}
 216              	.LVL20:
 217              	.L14:
 218              		.align	2
 219              	.L13:
 220 0050 CF010049 		.word	1224737231
 221 0054 F8460040 		.word	1073759992
 222 0058 F9460040 		.word	1073759993
 223 005c 6E580040 		.word	1073764462
 224 0060 2B5B0040 		.word	1073765163
 225 0064 76580040 		.word	1073764470
 226              		.cfi_endproc
 227              	.LFE6:
 228              		.size	AnalogSetDefault, .-AnalogSetDefault
 229              		.section	.text.CYCONFIGCPY,"ax",%progbits
 230              		.align	2
 231              		.thumb
 232              		.thumb_func
 233              		.type	CYCONFIGCPY, %function
 234              	CYCONFIGCPY:
 235              	.LFB1:
  85:Generated_Source\PSoC5/cyfitter_cfg.c **** 	(void)memcpy(dest, src, n);
 236              		.loc 1 85 0
 237              		.cfi_startproc
 238              		@ args = 0, pretend = 0, frame = 0
 239              		@ frame_needed = 0, uses_anonymous_args = 0
 240              	.LVL21:
 241 0000 08B5     		push	{r3, lr}
 242              		.cfi_def_cfa_offset 8
ARM GAS  C:\Users\vincent\AppData\Local\Temp\ccVGKpP9.s 			page 11


 243              		.cfi_offset 3, -8
 244              		.cfi_offset 14, -4
  86:Generated_Source\PSoC5/cyfitter_cfg.c **** }
 245              		.loc 1 86 0
 246 0002 FFF7FEFF 		bl	memcpy
 247              	.LVL22:
 248 0006 08BD     		pop	{r3, pc}
 249              		.cfi_endproc
 250              	.LFE1:
 251              		.size	CYCONFIGCPY, .-CYCONFIGCPY
 252              		.section	.text.ClockSetup,"ax",%progbits
 253              		.align	2
 254              		.thumb
 255              		.thumb_func
 256              		.type	ClockSetup, %function
 257              	ClockSetup:
 258              	.LFB5:
 234:Generated_Source\PSoC5/cyfitter_cfg.c **** 	uint32 timeout;
 259              		.loc 1 234 0
 260              		.cfi_startproc
 261              		@ args = 0, pretend = 0, frame = 0
 262              		@ frame_needed = 0, uses_anonymous_args = 0
 263 0000 38B5     		push	{r3, r4, r5, lr}
 264              		.cfi_def_cfa_offset 16
 265              		.cfi_offset 3, -16
 266              		.cfi_offset 4, -12
 267              		.cfi_offset 5, -8
 268              		.cfi_offset 14, -4
 240:Generated_Source\PSoC5/cyfitter_cfg.c **** 	CY_SET_XTND_REG8((void CYFAR *)(CYREG_CLKDIST_DCFG0_CFG0 + 0x2u), 0x18u);
 269              		.loc 1 240 0
 270 0002 4A22     		movs	r2, #74
 271 0004 304B     		ldr	r3, .L23
 272 0006 1A80     		strh	r2, [r3]	@ movhi
 241:Generated_Source\PSoC5/cyfitter_cfg.c **** 	CY_SET_XTND_REG16((void CYFAR *)(CYREG_CLKDIST_DCFG1_CFG0), 0x00A2u);
 273              		.loc 1 241 0
 274 0008 1823     		movs	r3, #24
 275 000a 304A     		ldr	r2, .L23+4
 276 000c 1370     		strb	r3, [r2]
 242:Generated_Source\PSoC5/cyfitter_cfg.c **** 	CY_SET_XTND_REG8((void CYFAR *)(CYREG_CLKDIST_DCFG1_CFG0 + 0x2u), 0x18u);
 277              		.loc 1 242 0
 278 000e A221     		movs	r1, #162
 279 0010 0232     		adds	r2, r2, #2
 280 0012 1180     		strh	r1, [r2]	@ movhi
 243:Generated_Source\PSoC5/cyfitter_cfg.c **** 
 281              		.loc 1 243 0
 282 0014 0232     		adds	r2, r2, #2
 283 0016 1370     		strb	r3, [r2]
 246:Generated_Source\PSoC5/cyfitter_cfg.c **** 
 284              		.loc 1 246 0
 285 0018 0422     		movs	r2, #4
 286 001a 2D49     		ldr	r1, .L23+8
 287 001c 2D48     		ldr	r0, .L23+12
 288 001e FFF7FEFF 		bl	CYCONFIGCPY
 289              	.LVL23:
 249:Generated_Source\PSoC5/cyfitter_cfg.c **** 	CY_SET_XTND_REG8((void CYFAR *)(CYREG_CLKDIST_CR), 0x08u);
 290              		.loc 1 249 0
 291 0022 0222     		movs	r2, #2
ARM GAS  C:\Users\vincent\AppData\Local\Temp\ccVGKpP9.s 			page 12


 292 0024 2C4B     		ldr	r3, .L23+16
 293 0026 1A70     		strb	r2, [r3]
 250:Generated_Source\PSoC5/cyfitter_cfg.c **** 
 294              		.loc 1 250 0
 295 0028 0822     		movs	r2, #8
 296 002a 4FF04023 		mov	r3, #1073758208
 297 002e 1A70     		strb	r2, [r3]
 253:Generated_Source\PSoC5/cyfitter_cfg.c **** 	CY_SET_XTND_REG8((void CYFAR *)(CYREG_IMO_TR1), (CY_GET_XTND_REG8((void CYFAR *)CYREG_FLSHID_CUST_
 298              		.loc 1 253 0
 299 0030 0322     		movs	r2, #3
 300 0032 03F50073 		add	r3, r3, #512
 301 0036 1A70     		strb	r2, [r3]
 254:Generated_Source\PSoC5/cyfitter_cfg.c **** 
 302              		.loc 1 254 0
 303 0038 284B     		ldr	r3, .L23+20
 304 003a 1B78     		ldrb	r3, [r3]	@ zero_extendqisi2
 305 003c DBB2     		uxtb	r3, r3
 306 003e 284A     		ldr	r2, .L23+24
 307 0040 1370     		strb	r3, [r2]
 257:Generated_Source\PSoC5/cyfitter_cfg.c **** 	CY_SET_XTND_REG16((void CYFAR *)(CYREG_FASTCLK_PLL_CFG0), 0x2251u);
 308              		.loc 1 257 0
 309 0042 40F24B22 		movw	r2, #587
 310 0046 274B     		ldr	r3, .L23+28
 311 0048 1A80     		strh	r2, [r3]	@ movhi
 258:Generated_Source\PSoC5/cyfitter_cfg.c **** 	/* Wait up to 250us for the PLL to lock */
 312              		.loc 1 258 0
 313 004a 42F25122 		movw	r2, #8785
 314 004e 023B     		subs	r3, r3, #2
 315 0050 1A80     		strh	r2, [r3]	@ movhi
 316              	.LVL24:
 260:Generated_Source\PSoC5/cyfitter_cfg.c **** 	for (timeout = 250u / 10u; (timeout > 0u) && (pllLock != 0x03u); timeout--)
 317              		.loc 1 260 0
 318 0052 0024     		movs	r4, #0
 261:Generated_Source\PSoC5/cyfitter_cfg.c **** 	{ 
 319              		.loc 1 261 0
 320 0054 1925     		movs	r5, #25
 321 0056 0CE0     		b	.L18
 322              	.LVL25:
 323              	.L20:
 263:Generated_Source\PSoC5/cyfitter_cfg.c **** 		CyDelayCycles(10u * 48u); /* Delay 10us based on 48MHz clock */
 324              		.loc 1 263 0 discriminator 4
 325 0058 234B     		ldr	r3, .L23+32
 326 005a 1B78     		ldrb	r3, [r3]	@ zero_extendqisi2
 327 005c 03F00103 		and	r3, r3, #1
 328 0060 43EA4404 		orr	r4, r3, r4, lsl #1
 329              	.LVL26:
 330 0064 04F00304 		and	r4, r4, #3
 331              	.LVL27:
 264:Generated_Source\PSoC5/cyfitter_cfg.c **** 	}
 332              		.loc 1 264 0 discriminator 4
 333 0068 4FF4F070 		mov	r0, #480
 334 006c FFF7FEFF 		bl	CyDelayCycles
 335              	.LVL28:
 261:Generated_Source\PSoC5/cyfitter_cfg.c **** 	{ 
 336              		.loc 1 261 0 discriminator 4
 337 0070 013D     		subs	r5, r5, #1
 338              	.LVL29:
ARM GAS  C:\Users\vincent\AppData\Local\Temp\ccVGKpP9.s 			page 13


 339              	.L18:
 261:Generated_Source\PSoC5/cyfitter_cfg.c **** 	{ 
 340              		.loc 1 261 0 is_stmt 0 discriminator 1
 341 0072 0DB1     		cbz	r5, .L19
 261:Generated_Source\PSoC5/cyfitter_cfg.c **** 	{ 
 342              		.loc 1 261 0 discriminator 3
 343 0074 032C     		cmp	r4, #3
 344 0076 EFD1     		bne	.L20
 345              	.L19:
 267:Generated_Source\PSoC5/cyfitter_cfg.c **** 	{
 346              		.loc 1 267 0 is_stmt 1
 347 0078 15B9     		cbnz	r5, .L21
 269:Generated_Source\PSoC5/cyfitter_cfg.c **** 	}
 348              		.loc 1 269 0
 349 007a 0320     		movs	r0, #3
 350 007c FFF7FEFF 		bl	CyClockStartupError
 351              	.LVL30:
 352              	.L21:
 273:Generated_Source\PSoC5/cyfitter_cfg.c **** 	CY_SET_XTND_REG8((void CYFAR *)(CYREG_CLKDIST_MSTR0), 0x07u);
 353              		.loc 1 273 0
 354 0080 1A4B     		ldr	r3, .L23+36
 355 0082 4FF48072 		mov	r2, #256
 356 0086 1A80     		strh	r2, [r3]	@ movhi
 274:Generated_Source\PSoC5/cyfitter_cfg.c **** 	CY_SET_XTND_REG8((void CYFAR *)(CYREG_CLKDIST_BCFG0), 0x00u);
 357              		.loc 1 274 0
 358 0088 0722     		movs	r2, #7
 359 008a 1A70     		strb	r2, [r3]
 275:Generated_Source\PSoC5/cyfitter_cfg.c **** 	CY_SET_XTND_REG8((void CYFAR *)(CYREG_CLKDIST_BCFG2), 0x48u);
 360              		.loc 1 275 0
 361 008c 0022     		movs	r2, #0
 362 008e 1849     		ldr	r1, .L23+40
 363 0090 0A70     		strb	r2, [r1]
 276:Generated_Source\PSoC5/cyfitter_cfg.c **** 	CY_SET_XTND_REG8((void CYFAR *)(CYREG_CLKDIST_MSTR0), 0x00u);
 364              		.loc 1 276 0
 365 0092 4820     		movs	r0, #72
 366 0094 0231     		adds	r1, r1, #2
 367 0096 0870     		strb	r0, [r1]
 277:Generated_Source\PSoC5/cyfitter_cfg.c **** 	CY_SET_XTND_REG8((void CYFAR *)(CYREG_CLKDIST_LD), 0x02u);
 368              		.loc 1 277 0
 369 0098 1A70     		strb	r2, [r3]
 278:Generated_Source\PSoC5/cyfitter_cfg.c **** 	CY_SET_XTND_REG8((void CYFAR *)(CYREG_CLKDIST_DLY1), 0x04u);
 370              		.loc 1 278 0
 371 009a 0222     		movs	r2, #2
 372 009c 033B     		subs	r3, r3, #3
 373 009e 1A70     		strb	r2, [r3]
 279:Generated_Source\PSoC5/cyfitter_cfg.c **** 
 374              		.loc 1 279 0
 375 00a0 0422     		movs	r2, #4
 376 00a2 0A33     		adds	r3, r3, #10
 377 00a4 1A70     		strb	r2, [r3]
 281:Generated_Source\PSoC5/cyfitter_cfg.c **** 	CY_SET_XTND_REG8((void CYFAR *)(CYREG_PM_ACT_CFG1), ((CY_GET_XTND_REG8((void CYFAR *)CYREG_PM_ACT_
 378              		.loc 1 281 0
 379 00a6 134A     		ldr	r2, .L23+44
 380 00a8 1378     		ldrb	r3, [r2]	@ zero_extendqisi2
 381 00aa 43F00303 		orr	r3, r3, #3
 382 00ae 1370     		strb	r3, [r2]
 282:Generated_Source\PSoC5/cyfitter_cfg.c **** 	CY_SET_XTND_REG8((void CYFAR *)(CYREG_PM_ACT_CFG0), ((CY_GET_XTND_REG8((void CYFAR *)CYREG_PM_ACT_
ARM GAS  C:\Users\vincent\AppData\Local\Temp\ccVGKpP9.s 			page 14


 383              		.loc 1 282 0
 384 00b0 013A     		subs	r2, r2, #1
 385 00b2 1378     		ldrb	r3, [r2]	@ zero_extendqisi2
 386 00b4 43F00103 		orr	r3, r3, #1
 387 00b8 1370     		strb	r3, [r2]
 283:Generated_Source\PSoC5/cyfitter_cfg.c **** }
 388              		.loc 1 283 0
 389 00ba 013A     		subs	r2, r2, #1
 390 00bc 1378     		ldrb	r3, [r2]	@ zero_extendqisi2
 391 00be 43F08003 		orr	r3, r3, #128
 392 00c2 1370     		strb	r3, [r2]
 393 00c4 38BD     		pop	{r3, r4, r5, pc}
 394              	.LVL31:
 395              	.L24:
 396 00c6 00BF     		.align	2
 397              	.L23:
 398 00c8 80400040 		.word	1073758336
 399 00cc 82400040 		.word	1073758338
 400 00d0 A8040048 		.word	1207960744
 401 00d4 00410040 		.word	1073758464
 402 00d8 00430040 		.word	1073758976
 403 00dc 08010049 		.word	1224737032
 404 00e0 A1460040 		.word	1073759905
 405 00e4 22420040 		.word	1073758754
 406 00e8 25420040 		.word	1073758757
 407 00ec 04400040 		.word	1073758212
 408 00f0 06400040 		.word	1073758214
 409 00f4 A2430040 		.word	1073759138
 410              		.cfi_endproc
 411              	.LFE5:
 412              		.size	ClockSetup, .-ClockSetup
 413              		.section	.text.SetAnalogRoutingPumps,"ax",%progbits
 414              		.align	2
 415              		.global	SetAnalogRoutingPumps
 416              		.thumb
 417              		.thumb_func
 418              		.type	SetAnalogRoutingPumps, %function
 419              	SetAnalogRoutingPumps:
 420              	.LFB7:
 323:Generated_Source\PSoC5/cyfitter_cfg.c **** }
 324:Generated_Source\PSoC5/cyfitter_cfg.c **** 
 325:Generated_Source\PSoC5/cyfitter_cfg.c **** 
 326:Generated_Source\PSoC5/cyfitter_cfg.c **** /*******************************************************************************
 327:Generated_Source\PSoC5/cyfitter_cfg.c **** * Function Name: SetAnalogRoutingPumps
 328:Generated_Source\PSoC5/cyfitter_cfg.c **** ********************************************************************************
 329:Generated_Source\PSoC5/cyfitter_cfg.c **** *
 330:Generated_Source\PSoC5/cyfitter_cfg.c **** * Summary:
 331:Generated_Source\PSoC5/cyfitter_cfg.c **** * Enables or disables the analog pumps feeding analog routing switches.
 332:Generated_Source\PSoC5/cyfitter_cfg.c **** * Intended to be called at startup, based on the Vdda system configuration;
 333:Generated_Source\PSoC5/cyfitter_cfg.c **** * may be called during operation when the user informs us that the Vdda voltage
 334:Generated_Source\PSoC5/cyfitter_cfg.c **** * crossed the pump threshold.
 335:Generated_Source\PSoC5/cyfitter_cfg.c **** *
 336:Generated_Source\PSoC5/cyfitter_cfg.c **** * Parameters:
 337:Generated_Source\PSoC5/cyfitter_cfg.c **** *  enabled - 1 to enable the pumps, 0 to disable the pumps
 338:Generated_Source\PSoC5/cyfitter_cfg.c **** *
 339:Generated_Source\PSoC5/cyfitter_cfg.c **** * Return:
 340:Generated_Source\PSoC5/cyfitter_cfg.c **** *  void
ARM GAS  C:\Users\vincent\AppData\Local\Temp\ccVGKpP9.s 			page 15


 341:Generated_Source\PSoC5/cyfitter_cfg.c **** *
 342:Generated_Source\PSoC5/cyfitter_cfg.c **** *******************************************************************************/
 343:Generated_Source\PSoC5/cyfitter_cfg.c **** void SetAnalogRoutingPumps(uint8 enabled)
 344:Generated_Source\PSoC5/cyfitter_cfg.c **** {
 421              		.loc 1 344 0
 422              		.cfi_startproc
 423              		@ args = 0, pretend = 0, frame = 0
 424              		@ frame_needed = 0, uses_anonymous_args = 0
 425              		@ link register save eliminated.
 426              	.LVL32:
 345:Generated_Source\PSoC5/cyfitter_cfg.c **** 	uint8 regValue = CY_GET_XTND_REG8((void CYFAR *)CYREG_PUMP_CR0);
 427              		.loc 1 345 0
 428 0000 054B     		ldr	r3, .L28
 429 0002 1B78     		ldrb	r3, [r3]	@ zero_extendqisi2
 430 0004 DBB2     		uxtb	r3, r3
 431              	.LVL33:
 346:Generated_Source\PSoC5/cyfitter_cfg.c **** 	if (enabled != 0u)
 432              		.loc 1 346 0
 433 0006 10B1     		cbz	r0, .L26
 347:Generated_Source\PSoC5/cyfitter_cfg.c **** 	{
 348:Generated_Source\PSoC5/cyfitter_cfg.c **** 		regValue |= 0x22u;
 434              		.loc 1 348 0
 435 0008 43F02203 		orr	r3, r3, #34
 436              	.LVL34:
 437 000c 01E0     		b	.L27
 438              	.L26:
 349:Generated_Source\PSoC5/cyfitter_cfg.c **** 	}
 350:Generated_Source\PSoC5/cyfitter_cfg.c **** 	else
 351:Generated_Source\PSoC5/cyfitter_cfg.c **** 	{
 352:Generated_Source\PSoC5/cyfitter_cfg.c **** 		regValue &= (uint8)~0x22u;
 439              		.loc 1 352 0
 440 000e 03F0DD03 		and	r3, r3, #221
 441              	.LVL35:
 442              	.L27:
 353:Generated_Source\PSoC5/cyfitter_cfg.c **** 	}
 354:Generated_Source\PSoC5/cyfitter_cfg.c **** 	CY_SET_XTND_REG8((void CYFAR *)CYREG_PUMP_CR0, regValue);
 443              		.loc 1 354 0
 444 0012 014A     		ldr	r2, .L28
 445 0014 1370     		strb	r3, [r2]
 446 0016 7047     		bx	lr
 447              	.L29:
 448              		.align	2
 449              	.L28:
 450 0018 76580040 		.word	1073764470
 451              		.cfi_endproc
 452              	.LFE7:
 453              		.size	SetAnalogRoutingPumps, .-SetAnalogRoutingPumps
 454              		.section	.text.AMUX_Set,"ax",%progbits
 455              		.align	2
 456              		.global	AMUX_Set
 457              		.thumb
 458              		.thumb_func
 459              		.type	AMUX_Set, %function
 460              	AMUX_Set:
 461              	.LFB8:
 355:Generated_Source\PSoC5/cyfitter_cfg.c **** }
 356:Generated_Source\PSoC5/cyfitter_cfg.c **** 
ARM GAS  C:\Users\vincent\AppData\Local\Temp\ccVGKpP9.s 			page 16


 357:Generated_Source\PSoC5/cyfitter_cfg.c **** 
 358:Generated_Source\PSoC5/cyfitter_cfg.c **** #define CY_AMUX_UNUSED CYREG_BOOST_SR
 359:Generated_Source\PSoC5/cyfitter_cfg.c **** /* This is an implementation detail of the AMux. Code that depends on it may be
 360:Generated_Source\PSoC5/cyfitter_cfg.c ****    incompatible with other versions of PSoC Creator. */
 361:Generated_Source\PSoC5/cyfitter_cfg.c **** uint8 CYXDATA * const CYCODE AMUX__addrTable[6] = {
 362:Generated_Source\PSoC5/cyfitter_cfg.c **** 	(uint8 CYXDATA *)CYREG_PRT3_AG, (uint8 CYXDATA *)CYREG_SAR1_SW0, 
 363:Generated_Source\PSoC5/cyfitter_cfg.c **** 	(uint8 CYXDATA *)CYREG_PRT3_AG, (uint8 CYXDATA *)CYREG_SAR1_SW0, 
 364:Generated_Source\PSoC5/cyfitter_cfg.c **** 	(uint8 CYXDATA *)CYREG_PRT3_AG, (uint8 CYXDATA *)CYREG_SAR1_SW0, 
 365:Generated_Source\PSoC5/cyfitter_cfg.c **** };
 366:Generated_Source\PSoC5/cyfitter_cfg.c **** 
 367:Generated_Source\PSoC5/cyfitter_cfg.c **** /* This is an implementation detail of the AMux. Code that depends on it may be
 368:Generated_Source\PSoC5/cyfitter_cfg.c ****    incompatible with other versions of PSoC Creator. */
 369:Generated_Source\PSoC5/cyfitter_cfg.c **** const uint8 CYCODE AMUX__maskTable[6] = {
 370:Generated_Source\PSoC5/cyfitter_cfg.c **** 	0x40u, 0x40u, 
 371:Generated_Source\PSoC5/cyfitter_cfg.c **** 	0x20u, 0x20u, 
 372:Generated_Source\PSoC5/cyfitter_cfg.c **** 	0x10u, 0x10u, 
 373:Generated_Source\PSoC5/cyfitter_cfg.c **** };
 374:Generated_Source\PSoC5/cyfitter_cfg.c **** 
 375:Generated_Source\PSoC5/cyfitter_cfg.c **** /*******************************************************************************
 376:Generated_Source\PSoC5/cyfitter_cfg.c **** * Function Name: AMUX_Set
 377:Generated_Source\PSoC5/cyfitter_cfg.c **** ********************************************************************************
 378:Generated_Source\PSoC5/cyfitter_cfg.c **** * Summary:
 379:Generated_Source\PSoC5/cyfitter_cfg.c **** *  This function is used to set a particular channel as active on the AMux.
 380:Generated_Source\PSoC5/cyfitter_cfg.c **** *
 381:Generated_Source\PSoC5/cyfitter_cfg.c **** * Parameters:  
 382:Generated_Source\PSoC5/cyfitter_cfg.c **** *   channel - The mux channel input to set as active
 383:Generated_Source\PSoC5/cyfitter_cfg.c **** *
 384:Generated_Source\PSoC5/cyfitter_cfg.c **** * Return:
 385:Generated_Source\PSoC5/cyfitter_cfg.c **** *   void
 386:Generated_Source\PSoC5/cyfitter_cfg.c **** *
 387:Generated_Source\PSoC5/cyfitter_cfg.c **** *******************************************************************************/
 388:Generated_Source\PSoC5/cyfitter_cfg.c **** void AMUX_Set(uint8 channel)
 389:Generated_Source\PSoC5/cyfitter_cfg.c **** {
 462              		.loc 1 389 0
 463              		.cfi_startproc
 464              		@ args = 0, pretend = 0, frame = 0
 465              		@ frame_needed = 0, uses_anonymous_args = 0
 466              		@ link register save eliminated.
 467              	.LVL36:
 390:Generated_Source\PSoC5/cyfitter_cfg.c **** 	if (channel < 3)
 468              		.loc 1 390 0
 469 0000 0228     		cmp	r0, #2
 470 0002 14D8     		bhi	.L34
 389:Generated_Source\PSoC5/cyfitter_cfg.c **** 	if (channel < 3)
 471              		.loc 1 389 0
 472 0004 10B4     		push	{r4}
 473              		.cfi_def_cfa_offset 4
 474              		.cfi_offset 4, -4
 391:Generated_Source\PSoC5/cyfitter_cfg.c **** 	{
 392:Generated_Source\PSoC5/cyfitter_cfg.c **** 		channel += channel;
 475              		.loc 1 392 0
 476 0006 4000     		lsls	r0, r0, #1
 477              	.LVL37:
 478 0008 C0B2     		uxtb	r0, r0
 479              	.LVL38:
 393:Generated_Source\PSoC5/cyfitter_cfg.c **** 		*AMUX__addrTable[channel] |= AMUX__maskTable[channel];
 480              		.loc 1 393 0
ARM GAS  C:\Users\vincent\AppData\Local\Temp\ccVGKpP9.s 			page 17


 481 000a 094B     		ldr	r3, .L35
 482 000c 53F82010 		ldr	r1, [r3, r0, lsl #2]
 483 0010 1A18     		adds	r2, r3, r0
 484 0012 147E     		ldrb	r4, [r2, #24]	@ zero_extendqisi2
 485 0014 0A78     		ldrb	r2, [r1]	@ zero_extendqisi2
 486 0016 2243     		orrs	r2, r2, r4
 487 0018 0A70     		strb	r2, [r1]
 394:Generated_Source\PSoC5/cyfitter_cfg.c **** 		channel++;
 488              		.loc 1 394 0
 489 001a 0130     		adds	r0, r0, #1
 490              	.LVL39:
 491 001c C0B2     		uxtb	r0, r0
 492              	.LVL40:
 395:Generated_Source\PSoC5/cyfitter_cfg.c **** 		*AMUX__addrTable[channel] |= AMUX__maskTable[channel];
 493              		.loc 1 395 0
 494 001e 53F82020 		ldr	r2, [r3, r0, lsl #2]
 495 0022 1844     		add	r0, r0, r3
 496              	.LVL41:
 497 0024 017E     		ldrb	r1, [r0, #24]	@ zero_extendqisi2
 498 0026 1378     		ldrb	r3, [r2]	@ zero_extendqisi2
 499 0028 0B43     		orrs	r3, r3, r1
 500 002a 1370     		strb	r3, [r2]
 396:Generated_Source\PSoC5/cyfitter_cfg.c **** 	}
 397:Generated_Source\PSoC5/cyfitter_cfg.c **** }
 501              		.loc 1 397 0
 502 002c 10BC     		pop	{r4}
 503              		.cfi_restore 4
 504              		.cfi_def_cfa_offset 0
 505              	.LVL42:
 506              	.L34:
 507 002e 7047     		bx	lr
 508              	.L36:
 509              		.align	2
 510              	.L35:
 511 0030 00000000 		.word	.LANCHOR0
 512              		.cfi_endproc
 513              	.LFE8:
 514              		.size	AMUX_Set, .-AMUX_Set
 515              		.section	.text.AMUX_Unset,"ax",%progbits
 516              		.align	2
 517              		.global	AMUX_Unset
 518              		.thumb
 519              		.thumb_func
 520              		.type	AMUX_Unset, %function
 521              	AMUX_Unset:
 522              	.LFB9:
 398:Generated_Source\PSoC5/cyfitter_cfg.c **** 
 399:Generated_Source\PSoC5/cyfitter_cfg.c **** /*******************************************************************************
 400:Generated_Source\PSoC5/cyfitter_cfg.c **** * Function Name: AMUX_Unset
 401:Generated_Source\PSoC5/cyfitter_cfg.c **** ********************************************************************************
 402:Generated_Source\PSoC5/cyfitter_cfg.c **** * Summary:
 403:Generated_Source\PSoC5/cyfitter_cfg.c **** *  This function is used to clear a particular channel from being active on the
 404:Generated_Source\PSoC5/cyfitter_cfg.c **** *  AMux.
 405:Generated_Source\PSoC5/cyfitter_cfg.c **** *
 406:Generated_Source\PSoC5/cyfitter_cfg.c **** * Parameters:  
 407:Generated_Source\PSoC5/cyfitter_cfg.c **** *   channel - The mux channel input to mark inactive
 408:Generated_Source\PSoC5/cyfitter_cfg.c **** *
ARM GAS  C:\Users\vincent\AppData\Local\Temp\ccVGKpP9.s 			page 18


 409:Generated_Source\PSoC5/cyfitter_cfg.c **** * Return:
 410:Generated_Source\PSoC5/cyfitter_cfg.c **** *   void
 411:Generated_Source\PSoC5/cyfitter_cfg.c **** *
 412:Generated_Source\PSoC5/cyfitter_cfg.c **** *******************************************************************************/
 413:Generated_Source\PSoC5/cyfitter_cfg.c **** void AMUX_Unset(uint8 channel)
 414:Generated_Source\PSoC5/cyfitter_cfg.c **** {
 523              		.loc 1 414 0
 524              		.cfi_startproc
 525              		@ args = 0, pretend = 0, frame = 0
 526              		@ frame_needed = 0, uses_anonymous_args = 0
 527              		@ link register save eliminated.
 528              	.LVL43:
 415:Generated_Source\PSoC5/cyfitter_cfg.c **** 	if (channel < 3)
 529              		.loc 1 415 0
 530 0000 0228     		cmp	r0, #2
 531 0002 16D8     		bhi	.L41
 414:Generated_Source\PSoC5/cyfitter_cfg.c **** 	if (channel < 3)
 532              		.loc 1 414 0
 533 0004 10B4     		push	{r4}
 534              		.cfi_def_cfa_offset 4
 535              		.cfi_offset 4, -4
 416:Generated_Source\PSoC5/cyfitter_cfg.c **** 	{
 417:Generated_Source\PSoC5/cyfitter_cfg.c **** 		channel += channel;
 536              		.loc 1 417 0
 537 0006 4000     		lsls	r0, r0, #1
 538              	.LVL44:
 539 0008 C0B2     		uxtb	r0, r0
 540              	.LVL45:
 418:Generated_Source\PSoC5/cyfitter_cfg.c **** 		*AMUX__addrTable[channel] &= (uint8)~AMUX__maskTable[channel];
 541              		.loc 1 418 0
 542 000a 0A4B     		ldr	r3, .L42
 543 000c 53F82010 		ldr	r1, [r3, r0, lsl #2]
 544 0010 1A18     		adds	r2, r3, r0
 545 0012 147E     		ldrb	r4, [r2, #24]	@ zero_extendqisi2
 546 0014 0A78     		ldrb	r2, [r1]	@ zero_extendqisi2
 547 0016 22EA0402 		bic	r2, r2, r4
 548 001a 0A70     		strb	r2, [r1]
 419:Generated_Source\PSoC5/cyfitter_cfg.c **** 		channel++;
 549              		.loc 1 419 0
 550 001c 0130     		adds	r0, r0, #1
 551              	.LVL46:
 552 001e C0B2     		uxtb	r0, r0
 553              	.LVL47:
 420:Generated_Source\PSoC5/cyfitter_cfg.c **** 		*AMUX__addrTable[channel] &= (uint8)~AMUX__maskTable[channel];
 554              		.loc 1 420 0
 555 0020 53F82020 		ldr	r2, [r3, r0, lsl #2]
 556 0024 1844     		add	r0, r0, r3
 557              	.LVL48:
 558 0026 017E     		ldrb	r1, [r0, #24]	@ zero_extendqisi2
 559 0028 1378     		ldrb	r3, [r2]	@ zero_extendqisi2
 560 002a 23EA0103 		bic	r3, r3, r1
 561 002e 1370     		strb	r3, [r2]
 421:Generated_Source\PSoC5/cyfitter_cfg.c **** 	}
 422:Generated_Source\PSoC5/cyfitter_cfg.c **** }
 562              		.loc 1 422 0
 563 0030 10BC     		pop	{r4}
 564              		.cfi_restore 4
ARM GAS  C:\Users\vincent\AppData\Local\Temp\ccVGKpP9.s 			page 19


 565              		.cfi_def_cfa_offset 0
 566              	.LVL49:
 567              	.L41:
 568 0032 7047     		bx	lr
 569              	.L43:
 570              		.align	2
 571              	.L42:
 572 0034 00000000 		.word	.LANCHOR0
 573              		.cfi_endproc
 574              	.LFE9:
 575              		.size	AMUX_Unset, .-AMUX_Unset
 576              		.section	.text.cyfitter_cfg,"ax",%progbits
 577              		.align	2
 578              		.global	cyfitter_cfg
 579              		.thumb
 580              		.thumb_func
 581              		.type	cyfitter_cfg, %function
 582              	cyfitter_cfg:
 583              	.LFB10:
 423:Generated_Source\PSoC5/cyfitter_cfg.c **** 
 424:Generated_Source\PSoC5/cyfitter_cfg.c **** 
 425:Generated_Source\PSoC5/cyfitter_cfg.c **** 
 426:Generated_Source\PSoC5/cyfitter_cfg.c **** /*******************************************************************************
 427:Generated_Source\PSoC5/cyfitter_cfg.c **** * Function Name: cyfitter_cfg
 428:Generated_Source\PSoC5/cyfitter_cfg.c **** ********************************************************************************
 429:Generated_Source\PSoC5/cyfitter_cfg.c **** * Summary:
 430:Generated_Source\PSoC5/cyfitter_cfg.c **** *  This function is called by the start-up code for the selected device. It
 431:Generated_Source\PSoC5/cyfitter_cfg.c **** *  performs all of the necessary device configuration based on the design
 432:Generated_Source\PSoC5/cyfitter_cfg.c **** *  settings.  This includes settings from the Design Wide Resources (DWR) such
 433:Generated_Source\PSoC5/cyfitter_cfg.c **** *  as Clocks and Pins as well as any component configuration that is necessary.
 434:Generated_Source\PSoC5/cyfitter_cfg.c **** *
 435:Generated_Source\PSoC5/cyfitter_cfg.c **** * Parameters:
 436:Generated_Source\PSoC5/cyfitter_cfg.c **** *   void
 437:Generated_Source\PSoC5/cyfitter_cfg.c **** *
 438:Generated_Source\PSoC5/cyfitter_cfg.c **** * Return:
 439:Generated_Source\PSoC5/cyfitter_cfg.c **** *   void
 440:Generated_Source\PSoC5/cyfitter_cfg.c **** *
 441:Generated_Source\PSoC5/cyfitter_cfg.c **** *******************************************************************************/
 442:Generated_Source\PSoC5/cyfitter_cfg.c **** 
 443:Generated_Source\PSoC5/cyfitter_cfg.c **** void cyfitter_cfg(void)
 444:Generated_Source\PSoC5/cyfitter_cfg.c **** {
 584              		.loc 1 444 0
 585              		.cfi_startproc
 586              		@ args = 0, pretend = 0, frame = 0
 587              		@ frame_needed = 0, uses_anonymous_args = 0
 588 0000 10B5     		push	{r4, lr}
 589              		.cfi_def_cfa_offset 8
 590              		.cfi_offset 4, -8
 591              		.cfi_offset 14, -4
 445:Generated_Source\PSoC5/cyfitter_cfg.c **** #ifdef CYGlobalIntDisable
 446:Generated_Source\PSoC5/cyfitter_cfg.c **** 	/* Disable interrupts by default. Let user enable if/when they want. */
 447:Generated_Source\PSoC5/cyfitter_cfg.c **** 	CYGlobalIntDisable
 592              		.loc 1 447 0
 593              		.syntax unified
 594              	@ 447 "Generated_Source\PSoC5\cyfitter_cfg.c" 1
 595 0002 72B6     		CPSID   i
 596              	@ 0 "" 2
ARM GAS  C:\Users\vincent\AppData\Local\Temp\ccVGKpP9.s 			page 20


 448:Generated_Source\PSoC5/cyfitter_cfg.c **** #endif
 449:Generated_Source\PSoC5/cyfitter_cfg.c **** 
 450:Generated_Source\PSoC5/cyfitter_cfg.c **** 
 451:Generated_Source\PSoC5/cyfitter_cfg.c **** 	/* Set Flash Cycles based on max possible frequency in case a glitch occurs during ClockSetup(). *
 452:Generated_Source\PSoC5/cyfitter_cfg.c **** 	CY_SET_XTND_REG8((void CYFAR *)(CYREG_CACHE_CC_CTL), (((CYDEV_INSTRUCT_CACHE_ENABLED) != 0) ? 0x61
 597              		.loc 1 452 0
 598              		.thumb
 599              		.syntax unified
 600 0004 6122     		movs	r2, #97
 601 0006 354B     		ldr	r3, .L50
 602 0008 1A70     		strb	r2, [r3]
 453:Generated_Source\PSoC5/cyfitter_cfg.c **** 	/* Setup clocks based on selections from Clock DWR */
 454:Generated_Source\PSoC5/cyfitter_cfg.c **** 	ClockSetup();
 603              		.loc 1 454 0
 604 000a FFF7FEFF 		bl	ClockSetup
 605              	.LVL50:
 455:Generated_Source\PSoC5/cyfitter_cfg.c **** 	/* Enable/Disable Debug functionality based on settings from System DWR */
 456:Generated_Source\PSoC5/cyfitter_cfg.c **** 	CY_SET_XTND_REG8((void CYFAR *)CYREG_MLOGIC_DEBUG, (CY_GET_XTND_REG8((void CYFAR *)CYREG_MLOGIC_DE
 606              		.loc 1 456 0
 607 000e 344A     		ldr	r2, .L50+4
 608 0010 1378     		ldrb	r3, [r2]	@ zero_extendqisi2
 609 0012 43F00403 		orr	r3, r3, #4
 610 0016 1370     		strb	r3, [r2]
 611              	.LVL51:
 612              	.LBB3:
 457:Generated_Source\PSoC5/cyfitter_cfg.c **** 
 458:Generated_Source\PSoC5/cyfitter_cfg.c **** 	{
 459:Generated_Source\PSoC5/cyfitter_cfg.c **** 
 460:Generated_Source\PSoC5/cyfitter_cfg.c **** 		CYPACKED typedef struct {
 461:Generated_Source\PSoC5/cyfitter_cfg.c **** 			void CYFAR *address;
 462:Generated_Source\PSoC5/cyfitter_cfg.c **** 			uint16 size;
 463:Generated_Source\PSoC5/cyfitter_cfg.c **** 		} CYPACKED_ATTR cfg_memset_t;
 464:Generated_Source\PSoC5/cyfitter_cfg.c **** 
 465:Generated_Source\PSoC5/cyfitter_cfg.c **** 
 466:Generated_Source\PSoC5/cyfitter_cfg.c **** 		CYPACKED typedef struct {
 467:Generated_Source\PSoC5/cyfitter_cfg.c **** 			void CYFAR *dest;
 468:Generated_Source\PSoC5/cyfitter_cfg.c **** 			const void CYFAR *src;
 469:Generated_Source\PSoC5/cyfitter_cfg.c **** 			uint16 size;
 470:Generated_Source\PSoC5/cyfitter_cfg.c **** 		} CYPACKED_ATTR cfg_memcpy_t;
 471:Generated_Source\PSoC5/cyfitter_cfg.c **** 
 472:Generated_Source\PSoC5/cyfitter_cfg.c **** 		static const cfg_memset_t CYCODE cfg_memset_list[] = {
 473:Generated_Source\PSoC5/cyfitter_cfg.c **** 			/* address, size */
 474:Generated_Source\PSoC5/cyfitter_cfg.c **** 			{(void CYFAR *)(CYREG_PRT0_DR), 16u},
 475:Generated_Source\PSoC5/cyfitter_cfg.c **** 			{(void CYFAR *)(CYREG_PRT4_DR), 48u},
 476:Generated_Source\PSoC5/cyfitter_cfg.c **** 			{(void CYFAR *)(CYDEV_UCFG_B0_P0_U0_BASE), 4096u},
 477:Generated_Source\PSoC5/cyfitter_cfg.c **** 			{(void CYFAR *)(CYDEV_UCFG_B1_P2_U0_BASE), 1152u},
 478:Generated_Source\PSoC5/cyfitter_cfg.c **** 			{(void CYFAR *)(CYDEV_UCFG_B1_P4_ROUTE_BASE), 768u},
 479:Generated_Source\PSoC5/cyfitter_cfg.c **** 			{(void CYFAR *)(CYDEV_UCFG_DSI0_BASE), 2560u},
 480:Generated_Source\PSoC5/cyfitter_cfg.c **** 			{(void CYFAR *)(CYDEV_UCFG_DSI12_BASE), 512u},
 481:Generated_Source\PSoC5/cyfitter_cfg.c **** 			{(void CYFAR *)(CYREG_BCTL0_MDCLK_EN), 32u},
 482:Generated_Source\PSoC5/cyfitter_cfg.c **** 		};
 483:Generated_Source\PSoC5/cyfitter_cfg.c **** 
 484:Generated_Source\PSoC5/cyfitter_cfg.c **** 		static const cfg_memcpy_t CYCODE cfg_memcpy_list [] = {
 485:Generated_Source\PSoC5/cyfitter_cfg.c **** 			/* dest, src, size */
 486:Generated_Source\PSoC5/cyfitter_cfg.c **** 			{(void CYFAR *)(CYDEV_UCFG_B1_P4_U1_BASE), BS_UDB_0_1_0_CONFIG_VAL, 128u},
 487:Generated_Source\PSoC5/cyfitter_cfg.c **** 		};
 488:Generated_Source\PSoC5/cyfitter_cfg.c **** 
ARM GAS  C:\Users\vincent\AppData\Local\Temp\ccVGKpP9.s 			page 21


 489:Generated_Source\PSoC5/cyfitter_cfg.c **** 		uint8 CYDATA i;
 490:Generated_Source\PSoC5/cyfitter_cfg.c **** 
 491:Generated_Source\PSoC5/cyfitter_cfg.c **** 		/* Zero out critical memory blocks before beginning configuration */
 492:Generated_Source\PSoC5/cyfitter_cfg.c **** 		for (i = 0u; i < (sizeof(cfg_memset_list)/sizeof(cfg_memset_list[0])); i++)
 613              		.loc 1 492 0
 614 0018 0024     		movs	r4, #0
 615 001a 0BE0     		b	.L45
 616              	.LVL52:
 617              	.L46:
 618              	.LBB4:
 493:Generated_Source\PSoC5/cyfitter_cfg.c **** 		{
 494:Generated_Source\PSoC5/cyfitter_cfg.c **** 			const cfg_memset_t CYCODE * CYDATA ms = &cfg_memset_list[i];
 495:Generated_Source\PSoC5/cyfitter_cfg.c **** 			CYMEMZERO(ms->address, (size_t)(uint32)(ms->size));
 619              		.loc 1 495 0 discriminator 3
 620 001c 3148     		ldr	r0, .L50+8
 621 001e 6300     		lsls	r3, r4, #1
 622 0020 1A19     		adds	r2, r3, r4
 623 0022 5100     		lsls	r1, r2, #1
 624 0024 0144     		add	r1, r1, r0
 625 0026 0A46     		mov	r2, r1
 626 0028 898C     		ldrh	r1, [r1, #36]
 627 002a 106A     		ldr	r0, [r2, #32]	@ unaligned
 628 002c FFF7FEFF 		bl	CYMEMZERO
 629              	.LVL53:
 630              	.LBE4:
 492:Generated_Source\PSoC5/cyfitter_cfg.c **** 		{
 631              		.loc 1 492 0 discriminator 3
 632 0030 0134     		adds	r4, r4, #1
 633              	.LVL54:
 634 0032 E4B2     		uxtb	r4, r4
 635              	.LVL55:
 636              	.L45:
 492:Generated_Source\PSoC5/cyfitter_cfg.c **** 		{
 637              		.loc 1 492 0 is_stmt 0 discriminator 1
 638 0034 072C     		cmp	r4, #7
 639 0036 F1D9     		bls	.L46
 640 0038 0024     		movs	r4, #0
 641              	.LVL56:
 642 003a 0BE0     		b	.L47
 643              	.LVL57:
 644              	.L48:
 645              	.LBB5:
 496:Generated_Source\PSoC5/cyfitter_cfg.c **** 		}
 497:Generated_Source\PSoC5/cyfitter_cfg.c **** 
 498:Generated_Source\PSoC5/cyfitter_cfg.c **** 		/* Copy device configuration data into registers */
 499:Generated_Source\PSoC5/cyfitter_cfg.c **** 		for (i = 0u; i < (sizeof(cfg_memcpy_list)/sizeof(cfg_memcpy_list[0])); i++)
 500:Generated_Source\PSoC5/cyfitter_cfg.c **** 		{
 501:Generated_Source\PSoC5/cyfitter_cfg.c **** 			const cfg_memcpy_t CYCODE * CYDATA mc = &cfg_memcpy_list[i];
 502:Generated_Source\PSoC5/cyfitter_cfg.c **** 			void * CYDATA destPtr = mc->dest;
 646              		.loc 1 502 0 is_stmt 1 discriminator 3
 647 003c 2949     		ldr	r1, .L50+8
 648 003e A300     		lsls	r3, r4, #2
 649 0040 1819     		adds	r0, r3, r4
 650 0042 4200     		lsls	r2, r0, #1
 651 0044 8818     		adds	r0, r1, r2
 652              	.LVL58:
 503:Generated_Source\PSoC5/cyfitter_cfg.c **** 			const void * CYDATA srcPtr = mc->src;
ARM GAS  C:\Users\vincent\AppData\Local\Temp\ccVGKpP9.s 			page 22


 504:Generated_Source\PSoC5/cyfitter_cfg.c **** 			uint16 CYDATA numBytes = mc->size;
 505:Generated_Source\PSoC5/cyfitter_cfg.c **** 			CYCONFIGCPY(destPtr, srcPtr, numBytes);
 653              		.loc 1 505 0 discriminator 3
 654 0046 8022     		movs	r2, #128
 655 0048 416D     		ldr	r1, [r0, #84]	@ unaligned
 656              	.LVL59:
 657 004a 006D     		ldr	r0, [r0, #80]	@ unaligned
 658              	.LVL60:
 659 004c FFF7FEFF 		bl	CYCONFIGCPY
 660              	.LVL61:
 661              	.LBE5:
 499:Generated_Source\PSoC5/cyfitter_cfg.c **** 		{
 662              		.loc 1 499 0 discriminator 3
 663 0050 0134     		adds	r4, r4, #1
 664              	.LVL62:
 665 0052 E4B2     		uxtb	r4, r4
 666              	.LVL63:
 667              	.L47:
 499:Generated_Source\PSoC5/cyfitter_cfg.c **** 		{
 668              		.loc 1 499 0 is_stmt 0 discriminator 1
 669 0054 002C     		cmp	r4, #0
 670 0056 F1D0     		beq	.L48
 506:Generated_Source\PSoC5/cyfitter_cfg.c **** 		}
 507:Generated_Source\PSoC5/cyfitter_cfg.c **** 
 508:Generated_Source\PSoC5/cyfitter_cfg.c **** 		cfg_write_bytes32(cy_cfg_addr_table, cy_cfg_data_table);
 671              		.loc 1 508 0 is_stmt 1
 672 0058 2349     		ldr	r1, .L50+12
 673 005a 4FF09040 		mov	r0, #1207959552
 674 005e FFF7FEFF 		bl	cfg_write_bytes32
 675              	.LVL64:
 509:Generated_Source\PSoC5/cyfitter_cfg.c **** 
 510:Generated_Source\PSoC5/cyfitter_cfg.c **** 		/* Enable digital routing */
 511:Generated_Source\PSoC5/cyfitter_cfg.c **** 		CY_SET_XTND_REG8((void CYFAR *)CYREG_BCTL0_BANK_CTL, CY_GET_XTND_REG8((void CYFAR *)CYREG_BCTL0_B
 676              		.loc 1 511 0
 677 0062 224A     		ldr	r2, .L50+16
 678 0064 1378     		ldrb	r3, [r2]	@ zero_extendqisi2
 679 0066 43F00203 		orr	r3, r3, #2
 680 006a 1370     		strb	r3, [r2]
 512:Generated_Source\PSoC5/cyfitter_cfg.c **** 		CY_SET_XTND_REG8((void CYFAR *)CYREG_BCTL1_BANK_CTL, CY_GET_XTND_REG8((void CYFAR *)CYREG_BCTL1_B
 681              		.loc 1 512 0
 682 006c 1032     		adds	r2, r2, #16
 683 006e 1378     		ldrb	r3, [r2]	@ zero_extendqisi2
 684 0070 43F00203 		orr	r3, r3, #2
 685 0074 1370     		strb	r3, [r2]
 513:Generated_Source\PSoC5/cyfitter_cfg.c **** 
 514:Generated_Source\PSoC5/cyfitter_cfg.c **** 		/* Enable UDB array */
 515:Generated_Source\PSoC5/cyfitter_cfg.c **** 		CY_SET_XTND_REG8((void CYFAR *)CYREG_PM_ACT_CFG0, CY_GET_XTND_REG8((void CYFAR *)CYREG_PM_ACT_CFG
 686              		.loc 1 515 0
 687 0076 1E4C     		ldr	r4, .L50+20
 688              	.LVL65:
 689 0078 2378     		ldrb	r3, [r4]	@ zero_extendqisi2
 690 007a 43F04003 		orr	r3, r3, #64
 691 007e 2370     		strb	r3, [r4]
 516:Generated_Source\PSoC5/cyfitter_cfg.c **** 		CY_SET_XTND_REG8((void CYFAR *)CYREG_PM_AVAIL_CR2, CY_GET_XTND_REG8((void CYFAR *)CYREG_PM_AVAIL_
 692              		.loc 1 516 0
 693 0080 A2F58632 		sub	r2, r2, #68608
 694 0084 513A     		subs	r2, r2, #81
ARM GAS  C:\Users\vincent\AppData\Local\Temp\ccVGKpP9.s 			page 23


 695 0086 1378     		ldrb	r3, [r2]	@ zero_extendqisi2
 696 0088 43F01003 		orr	r3, r3, #16
 697 008c 1370     		strb	r3, [r2]
 698              	.LBE3:
 517:Generated_Source\PSoC5/cyfitter_cfg.c **** 	}
 518:Generated_Source\PSoC5/cyfitter_cfg.c **** 
 519:Generated_Source\PSoC5/cyfitter_cfg.c **** 
 520:Generated_Source\PSoC5/cyfitter_cfg.c **** 	/* Perform second pass device configuration. These items must be configured in specific order afte
 521:Generated_Source\PSoC5/cyfitter_cfg.c **** 	CYCONFIGCPY((void CYFAR *)(CYREG_PRT12_DR), (const void CYFAR *)(BS_IOPINS0_7_VAL), 10u);
 699              		.loc 1 521 0
 700 008e 0A22     		movs	r2, #10
 701 0090 1849     		ldr	r1, .L50+24
 702 0092 1948     		ldr	r0, .L50+28
 703 0094 FFF7FEFF 		bl	CYCONFIGCPY
 704              	.LVL66:
 522:Generated_Source\PSoC5/cyfitter_cfg.c **** 	CYCONFIGCPY((void CYFAR *)(CYREG_PRT15_DM0), (const void CYFAR *)(BS_IOPINS0_8_VAL), 8u);
 705              		.loc 1 522 0
 706 0098 0822     		movs	r2, #8
 707 009a 1849     		ldr	r1, .L50+32
 708 009c 1848     		ldr	r0, .L50+36
 709 009e FFF7FEFF 		bl	CYCONFIGCPY
 710              	.LVL67:
 523:Generated_Source\PSoC5/cyfitter_cfg.c **** 	CYCONFIGCPY((void CYFAR *)(CYREG_PRT1_DM0), (const void CYFAR *)(BS_IOPINS0_1_VAL), 8u);
 711              		.loc 1 523 0
 712 00a2 0822     		movs	r2, #8
 713 00a4 1749     		ldr	r1, .L50+40
 714 00a6 1848     		ldr	r0, .L50+44
 715 00a8 FFF7FEFF 		bl	CYCONFIGCPY
 716              	.LVL68:
 524:Generated_Source\PSoC5/cyfitter_cfg.c **** 	CYCONFIGCPY((void CYFAR *)(CYREG_PRT2_DM0), (const void CYFAR *)(BS_IOPINS0_2_VAL), 8u);
 717              		.loc 1 524 0
 718 00ac 0822     		movs	r2, #8
 719 00ae 1749     		ldr	r1, .L50+48
 720 00b0 1748     		ldr	r0, .L50+52
 721 00b2 FFF7FEFF 		bl	CYCONFIGCPY
 722              	.LVL69:
 525:Generated_Source\PSoC5/cyfitter_cfg.c **** 	CYCONFIGCPY((void CYFAR *)(CYREG_PRT3_DM0), (const void CYFAR *)(BS_IOPINS0_3_VAL), 8u);
 723              		.loc 1 525 0
 724 00b6 0822     		movs	r2, #8
 725 00b8 1649     		ldr	r1, .L50+56
 726 00ba 1748     		ldr	r0, .L50+60
 727 00bc FFF7FEFF 		bl	CYCONFIGCPY
 728              	.LVL70:
 526:Generated_Source\PSoC5/cyfitter_cfg.c **** 	/* Switch Boost to the precision bandgap reference from its internal reference */
 527:Generated_Source\PSoC5/cyfitter_cfg.c **** 	CY_SET_REG8((void CYXDATA *)CYREG_BOOST_CR2, (CY_GET_REG8((void CYXDATA *)CYREG_BOOST_CR2) | 0x08u
 729              		.loc 1 527 0
 730 00c0 164A     		ldr	r2, .L50+64
 731 00c2 1378     		ldrb	r3, [r2]	@ zero_extendqisi2
 732 00c4 43F00803 		orr	r3, r3, #8
 733 00c8 1370     		strb	r3, [r2]
 528:Generated_Source\PSoC5/cyfitter_cfg.c **** 
 529:Generated_Source\PSoC5/cyfitter_cfg.c **** 	/* Perform basic analog initialization to defaults */
 530:Generated_Source\PSoC5/cyfitter_cfg.c **** 	AnalogSetDefault();
 734              		.loc 1 530 0
 735 00ca FFF7FEFF 		bl	AnalogSetDefault
 736              	.LVL71:
 531:Generated_Source\PSoC5/cyfitter_cfg.c **** 
ARM GAS  C:\Users\vincent\AppData\Local\Temp\ccVGKpP9.s 			page 24


 532:Generated_Source\PSoC5/cyfitter_cfg.c **** 	/* Configure alternate active mode */
 533:Generated_Source\PSoC5/cyfitter_cfg.c **** 	CYCONFIGCPY((void CYFAR *)CYDEV_PM_STBY_BASE, (const void CYFAR *)CYDEV_PM_ACT_BASE, 14u);
 737              		.loc 1 533 0
 738 00ce 0E22     		movs	r2, #14
 739 00d0 2146     		mov	r1, r4
 740 00d2 1348     		ldr	r0, .L50+68
 741 00d4 FFF7FEFF 		bl	CYCONFIGCPY
 742              	.LVL72:
 743 00d8 10BD     		pop	{r4, pc}
 744              	.L51:
 745 00da 00BF     		.align	2
 746              	.L50:
 747 00dc 00480040 		.word	1073760256
 748 00e0 E8460040 		.word	1073759976
 749 00e4 00000000 		.word	.LANCHOR0
 750 00e8 54000048 		.word	1207959636
 751 00ec 03500140 		.word	1073827843
 752 00f0 A0430040 		.word	1073759136
 753 00f4 7C040048 		.word	1207960700
 754 00f8 C0510040 		.word	1073762752
 755 00fc 88040048 		.word	1207960712
 756 0100 F2510040 		.word	1073762802
 757 0104 90040048 		.word	1207960720
 758 0108 12510040 		.word	1073762578
 759 010c 98040048 		.word	1207960728
 760 0110 22510040 		.word	1073762594
 761 0114 A0040048 		.word	1207960736
 762 0118 32510040 		.word	1073762610
 763 011c 22430040 		.word	1073759010
 764 0120 B0430040 		.word	1073759152
 765              		.cfi_endproc
 766              	.LFE10:
 767              		.size	cyfitter_cfg, .-cyfitter_cfg
 768              		.global	AMUX__maskTable
 769              		.global	AMUX__addrTable
 770              		.section	.rodata
 771              		.align	2
 772              		.set	.LANCHOR0,. + 0
 773              		.type	AMUX__addrTable, %object
 774              		.size	AMUX__addrTable, 24
 775              	AMUX__addrTable:
 776 0000 3D510040 		.word	1073762621
 777 0004 285B0040 		.word	1073765160
 778 0008 3D510040 		.word	1073762621
 779 000c 285B0040 		.word	1073765160
 780 0010 3D510040 		.word	1073762621
 781 0014 285B0040 		.word	1073765160
 782              		.type	AMUX__maskTable, %object
 783              		.size	AMUX__maskTable, 6
 784              	AMUX__maskTable:
 785 0018 40       		.byte	64
 786 0019 40       		.byte	64
 787 001a 20       		.byte	32
 788 001b 20       		.byte	32
 789 001c 10       		.byte	16
 790 001d 10       		.byte	16
 791 001e 0000     		.space	2
ARM GAS  C:\Users\vincent\AppData\Local\Temp\ccVGKpP9.s 			page 25


 792              		.type	cfg_memset_list.5034, %object
 793              		.size	cfg_memset_list.5034, 48
 794              	cfg_memset_list.5034:
 795 0020 00510040 		.word	1073762560
 796 0024 1000     		.short	16
 797 0026 40510040 		.4byte	1073762624
 798 002a 3000     		.short	48
 799 002c 00000140 		.word	1073807360
 800 0030 0010     		.short	4096
 801 0032 00140140 		.4byte	1073812480
 802 0036 8004     		.short	1152
 803 0038 00190140 		.word	1073813760
 804 003c 0003     		.short	768
 805 003e 00400140 		.4byte	1073823744
 806 0042 000A     		.short	2560
 807 0044 004C0140 		.word	1073826816
 808 0048 0002     		.short	512
 809 004a 00500140 		.4byte	1073827840
 810 004e 2000     		.short	32
 811              		.type	cfg_memcpy_list.5035, %object
 812              		.size	cfg_memcpy_list.5035, 10
 813              	cfg_memcpy_list.5035:
 814 0050 80180140 		.word	1073813632
 815 0054 FC030048 		.word	1207960572
 816 0058 8000     		.short	128
 817              		.text
 818              	.Letext0:
 819              		.file 2 "c:\\program files (x86)\\cypress\\psoc creator\\4.4\\psoc creator\\import\\gnu\\arm\\5.4.
 820              		.file 3 "Generated_Source\\PSoC5\\cytypes.h"
 821              		.file 4 "Generated_Source\\PSoC5\\CyLib.h"