ARM GAS  C:\Users\vincent\AppData\Local\Temp\ccKOzO19.s 			page 1


   1              		.syntax unified
   2              		.cpu cortex-m3
   3              		.fpu softvfp
   4              		.eabi_attribute 20, 1
   5              		.eabi_attribute 21, 1
   6              		.eabi_attribute 23, 3
   7              		.eabi_attribute 24, 1
   8              		.eabi_attribute 25, 1
   9              		.eabi_attribute 26, 1
  10              		.eabi_attribute 30, 1
  11              		.eabi_attribute 34, 1
  12              		.eabi_attribute 18, 4
  13              		.thumb
  14              		.syntax unified
  15              		.file	"main.c"
  16              		.text
  17              	.Ltext0:
  18              		.cfi_sections	.debug_frame
  19              		.section	.text.MyUartISR,"ax",%progbits
  20              		.align	2
  21              		.global	MyUartISR
  22              		.thumb
  23              		.thumb_func
  24              		.type	MyUartISR, %function
  25              	MyUartISR:
  26              	.LFB71:
  27              		.file 1 "main.c"
   1:main.c        **** /* ========================================
   2:main.c        ****  EE 4450 - Project by Team 10
   3:main.c        ****  Carlos Ochoa
   4:main.c        ****  Vincent Oviedo
   5:main.c        ****  
   6:main.c        **** ===========================================
   7:main.c        ****  Station 1
   8:main.c        **** ===========================================
   9:main.c        **** SYSTEM
  10:main.c        **** lcd 2[6:0]
  11:main.c        **** uart 12[6,7]
  12:main.c        **** 
  13:main.c        **** INPUT 
  14:main.c        **** tempin 3.2
  15:main.c        **** tempout 3.4
  16:main.c        **** pres 3.6
  17:main.c        **** 
  18:main.c        **** OUTPUT
  19:main.c        **** 
  20:main.c        **** uv light 1.4
  21:main.c        **** servo 1.5
  22:main.c        **** fan 1.6
  23:main.c        **** hpad 1.7
  24:main.c        **** 
  25:main.c        **** 
  26:main.c        **** SENSOR -> QUEUE                                       TASK 1
  27:main.c        ****           QUEUE -> LCD                                TASK 2
  28:main.c        **** (send)    QUEUE -> UART                               TASK 3
  29:main.c        **** (recieve)          UART -> ISR -> MSG                 TASK 3
  30:main.c        ****                                   MSG -> OUTPUT       TASK 4
ARM GAS  C:\Users\vincent\AppData\Local\Temp\ccKOzO19.s 			page 2


  31:main.c        **** ===========================================
  32:main.c        ****             
  33:main.c        **** */
  34:main.c        **** 
  35:main.c        **** #include "project.h"
  36:main.c        **** #include <stdio.h>
  37:main.c        **** #include <stdlib.h>
  38:main.c        **** #include <stdint.h>
  39:main.c        **** #include <stdbool.h>
  40:main.c        **** #include <math.h>
  41:main.c        **** //FREERTOS headers
  42:main.c        **** #include "FreeRTOS_PSoC.h"
  43:main.c        **** #include "FreeRTOS.h"
  44:main.c        **** #include "task.h"
  45:main.c        **** #include "timers.h"
  46:main.c        **** #include "queue.h"
  47:main.c        **** #include "event_groups.h"
  48:main.c        **** #include "semphr.h"
  49:main.c        **** #include "message_buffer.h"
  50:main.c        **** /*
  51:main.c        **** TODO DONE!
  52:main.c        **** Finish Main x
  53:main.c        **** create message buffer x
  54:main.c        **** Write Messages
  55:main.c        **** create tasks x
  56:main.c        **** write tasks codeX
  57:main.c        **** Write Queuex
  58:main.c        **** ADD ISR X
  59:main.c        **** 
  60:main.c        **** Verify UART speaksX
  61:main.c        **** manually test sensors x
  62:main.c        **** */
  63:main.c        **** 
  64:main.c        **** // global variables
  65:main.c        **** MessageBufferHandle_t   xMessageBuffer = NULL; 
  66:main.c        **** #define MESSAGE_BUFFER_SIZE 100
  67:main.c        **** TaskHandle_t    		xTask4;
  68:main.c        **** 
  69:main.c        **** //our sensor structure
  70:main.c        **** typedef struct Sensors {
  71:main.c        ****     uint8_t     id;
  72:main.c        ****     double      data[4];
  73:main.c        ****    } Sensors;
  74:main.c        **** 
  75:main.c        **** //Queue info
  76:main.c        **** #define QUEUE_LENGTH	8
  77:main.c        **** #define QUEUE_ITEM_SIZE sizeof(Sensors)
  78:main.c        **** QueueHandle_t 			xQueue = NULL;
  79:main.c        **** 
  80:main.c        **** //ISR stuff
  81:main.c        **** CY_ISR_PROTO(MyUartISR);
  82:main.c        **** 
  83:main.c        **** // Creating our 4 task functions
  84:main.c        **** void     vGetData       (void *pvParameters);
  85:main.c        **** void     vDisplayData   (void *pvParameters);
  86:main.c        **** void     vUARTComm      (void *pvParameters);
  87:main.c        **** void     vTasks         (void *pvParameters);
ARM GAS  C:\Users\vincent\AppData\Local\Temp\ccKOzO19.s 			page 3


  88:main.c        **** float    GetTemp        (void);
  89:main.c        **** bool     GetTemp2       (float *Temp);
  90:main.c        **** 
  91:main.c        **** void MyPSOCSetup();
  92:main.c        **** 
  93:main.c        **** int main(void)
  94:main.c        **** {
  95:main.c        ****     
  96:main.c        ****     BaseType_t  err;
  97:main.c        ****     //CyGlobalIntEnable; /* Enable global interrupts. */
  98:main.c        ****     /* Place your initialization/startup code here (e.g. MyInst_Start()) */
  99:main.c        ****     
 100:main.c        ****     //Starting up all our services, AMUX, RTOS, ADC, SERVO
 101:main.c        ****     AMUX_Start();
 102:main.c        ****     MyPSOCSetup();
 103:main.c        ****     SARADC_Start();
 104:main.c        ****     FreeRTOS_Init();
 105:main.c        ****     SERVOPWM_Start();
 106:main.c        ****     
 107:main.c        ****     //Making message buffer
 108:main.c        ****     xMessageBuffer = xMessageBufferCreate(MESSAGE_BUFFER_SIZE);
 109:main.c        ****     
 110:main.c        ****     
 111:main.c        ****     if (xMessageBuffer == NULL) {
 112:main.c        ****         // If message buffer was NOT created successfully
 113:main.c        ****         LCD_Position(1,0);    
 114:main.c        ****         LCD_PrintString("Can't create MsgBuf");
 115:main.c        ****         while(1);
 116:main.c        ****     }
 117:main.c        ****        
 118:main.c        ****     //MAKE QUEUE
 119:main.c        **** 	xQueue = xQueueCreate(QUEUE_LENGTH, QUEUE_ITEM_SIZE);
 120:main.c        ****     if (xQueue == NULL) {
 121:main.c        ****         LCD_Position(1,0);    
 122:main.c        ****         LCD_PrintString("QUEUE ERROR");
 123:main.c        ****         while(1);
 124:main.c        ****     }
 125:main.c        ****    
 126:main.c        ****     // Create Tasks
 127:main.c        ****     err = xTaskCreate ( vGetData, //TaskFunction_t  pvTaskCode,
 128:main.c        ****                             "LCD Task", 
 129:main.c        ****                             configMINIMAL_STACK_SIZE,
 130:main.c        ****                             NULL, //void *pvParameters,
 131:main.c        ****                             configMAX_PRIORITIES-1, //ubasetype_t uxpriority
 132:main.c        ****                             NULL //taskhandle
 133:main.c        ****     );
 134:main.c        ****     
 135:main.c        ****     if (err != pdPASS){
 136:main.c        ****         LCD_Position(1,0);
 137:main.c        ****         LCD_PrintString("Cannot create Task!");
 138:main.c        ****         while(1){};
 139:main.c        ****     }
 140:main.c        ****      err = xTaskCreate ( vDisplayData, //TaskFunction_t  pvTaskCode,
 141:main.c        ****                             "Show Readings", 
 142:main.c        ****                             configMINIMAL_STACK_SIZE,
 143:main.c        ****                             NULL, //void *pvParameters,
 144:main.c        ****                             configMAX_PRIORITIES-1, //ubasetype_t uxpriority
ARM GAS  C:\Users\vincent\AppData\Local\Temp\ccKOzO19.s 			page 4


 145:main.c        ****                             NULL //taskhandle
 146:main.c        ****     );
 147:main.c        ****     if (err != pdPASS){
 148:main.c        ****         LCD_Position(1,0);
 149:main.c        ****         LCD_PrintString("Cannot create Task!");
 150:main.c        ****         while(1){};
 151:main.c        ****     }
 152:main.c        **** 	
 153:main.c        ****      err = xTaskCreate ( vUARTComm, //TaskFunction_t  pvTaskCode,
 154:main.c        ****                             "UART SynC", 
 155:main.c        ****                             configMINIMAL_STACK_SIZE,
 156:main.c        ****                             NULL, //void *pvParameters,
 157:main.c        ****                             configMAX_PRIORITIES-1, //ubasetype_t uxpriority
 158:main.c        ****                             NULL //taskhandle
 159:main.c        ****     );
 160:main.c        ****     if (err != pdPASS){
 161:main.c        ****         LCD_Position(1,0);
 162:main.c        ****         LCD_PrintString("Cannot create Task!");
 163:main.c        ****         while(1){};
 164:main.c        ****     }
 165:main.c        **** 	
 166:main.c        ****      err = xTaskCreate ( vTasks, //TaskFunction_t  pvTaskCode,
 167:main.c        ****                             "Adujusting Greenhouse", 
 168:main.c        ****                             configMINIMAL_STACK_SIZE,
 169:main.c        ****                             xMessageBuffer, //void *pvParameters,
 170:main.c        ****                             6, //ubasetype_t uxpriority
 171:main.c        ****                             NULL //taskhandle
 172:main.c        ****     );
 173:main.c        ****     if (err != pdPASS){
 174:main.c        ****         LCD_Position(1,0);
 175:main.c        ****         LCD_PrintString("Cannot create Task!");
 176:main.c        ****         while(1){};
 177:main.c        ****     }
 178:main.c        ****     //start scheduler
 179:main.c        ****     vTaskStartScheduler();
 180:main.c        ****     
 181:main.c        ****     for(;;)
 182:main.c        ****     {
 183:main.c        ****         /* Place your application code here. */
 184:main.c        ****     }
 185:main.c        **** }
 186:main.c        **** void MyPSOCSetup()
 187:main.c        **** {
 188:main.c        ****     LCD_Start();
 189:main.c        ****     LCD_ClearDisplay();
 190:main.c        ****     LCD_Position(0,0);
 191:main.c        ****     LCD_PrintString("EE4450 FREERTOS");
 192:main.c        ****     LCD_ClearDisplay();
 193:main.c        ****     CyDelay(1000);
 194:main.c        ****     
 195:main.c        ****     ISR_UART_StartEx(MyUartISR);
 196:main.c        ****     UART_Start();
 197:main.c        ****     UART_ClearRxBuffer();
 198:main.c        ****     UART_ClearTxBuffer();
 199:main.c        ****     //UART_PutString("Team 10 Greenhouse Final!");
 200:main.c        ****     
 201:main.c        **** }
ARM GAS  C:\Users\vincent\AppData\Local\Temp\ccKOzO19.s 			page 5


 202:main.c        **** 
 203:main.c        **** //----------------------------
 204:main.c        **** typedef enum STATES{
 205:main.c        ****     S_IDLE,
 206:main.c        ****     S_GOTDATA
 207:main.c        **** } STATES;
 208:main.c        **** #define START_CHAR '+'
 209:main.c        **** #define STOP_CHAR ';'
 210:main.c        **** //-----------------------------------------
 211:main.c        **** CY_ISR(MyUartISR)
 212:main.c        **** {
  28              		.loc 1 212 0
  29              		.cfi_startproc
  30              		@ args = 0, pretend = 0, frame = 8
  31              		@ frame_needed = 0, uses_anonymous_args = 0
  32 0000 30B5     		push	{r4, r5, lr}
  33              		.cfi_def_cfa_offset 12
  34              		.cfi_offset 4, -12
  35              		.cfi_offset 5, -8
  36              		.cfi_offset 14, -4
  37 0002 83B0     		sub	sp, sp, #12
  38              		.cfi_def_cfa_offset 24
 213:main.c        ****     static  char    buf[20];
 214:main.c        ****     static  STATES  state = S_IDLE;
 215:main.c        ****     static  int     idx = 0;
 216:main.c        ****     char            ch;
 217:main.c        ****     
 218:main.c        ****     BaseType_t      xHigherPriorityTaskToken = pdFALSE; // Initialized to pdFALSE
  39              		.loc 1 218 0
  40 0004 0023     		movs	r3, #0
  41 0006 0193     		str	r3, [sp, #4]
 219:main.c        ****     
 220:main.c        ****     while ( UART_GetRxBufferSize() > 0) {   // As long as this function gives us any number bigger 
  42              		.loc 1 220 0
  43 0008 2EE0     		b	.L2
  44              	.L8:
 221:main.c        ****         ch = UART_GetChar();
  45              		.loc 1 221 0
  46 000a FFF7FEFF 		bl	UART_GetChar
  47              	.LVL0:
 222:main.c        ****         if (ch == '\0')
  48              		.loc 1 222 0
  49 000e 0246     		mov	r2, r0
  50 0010 50B3     		cbz	r0, .L2
 223:main.c        ****             continue;   // go back to while loop
 224:main.c        ****         switch (state) {
  51              		.loc 1 224 0
  52 0012 194B     		ldr	r3, .L10
  53 0014 1B78     		ldrb	r3, [r3]	@ zero_extendqisi2
  54 0016 13B1     		cbz	r3, .L4
  55 0018 012B     		cmp	r3, #1
  56 001a 08D0     		beq	.L5
  57 001c 24E0     		b	.L2
  58              	.L4:
 225:main.c        ****             case S_IDLE:
 226:main.c        ****                 if (ch == START_CHAR) {
  59              		.loc 1 226 0
ARM GAS  C:\Users\vincent\AppData\Local\Temp\ccKOzO19.s 			page 6


  60 001e 2B28     		cmp	r0, #43
  61 0020 22D1     		bne	.L2
 227:main.c        ****                     idx = 0;
  62              		.loc 1 227 0
  63 0022 154B     		ldr	r3, .L10
  64 0024 0022     		movs	r2, #0
  65 0026 5A60     		str	r2, [r3, #4]
 228:main.c        ****                     state = S_GOTDATA;
  66              		.loc 1 228 0
  67 0028 0122     		movs	r2, #1
  68 002a 1A70     		strb	r2, [r3]
  69 002c 1CE0     		b	.L2
  70              	.L5:
 229:main.c        ****                  }            
 230:main.c        ****                 break;
 231:main.c        ****             case S_GOTDATA:
 232:main.c        ****                 if (idx > 19) {
  71              		.loc 1 232 0
  72 002e 124B     		ldr	r3, .L10
  73 0030 5B68     		ldr	r3, [r3, #4]
  74 0032 132B     		cmp	r3, #19
  75 0034 03DD     		ble	.L6
 233:main.c        ****                     state = S_IDLE;
  76              		.loc 1 233 0
  77 0036 0022     		movs	r2, #0
  78 0038 0F4B     		ldr	r3, .L10
  79 003a 1A70     		strb	r2, [r3]
  80 003c 14E0     		b	.L2
  81              	.L6:
 234:main.c        ****                 } else if (ch == STOP_CHAR) {
  82              		.loc 1 234 0
  83 003e 3B28     		cmp	r0, #59
  84 0040 0DD1     		bne	.L7
 235:main.c        ****                     buf[idx] = '\0';
  85              		.loc 1 235 0
  86 0042 0D4C     		ldr	r4, .L10
  87 0044 E218     		adds	r2, r4, r3
  88 0046 0025     		movs	r5, #0
  89 0048 1572     		strb	r5, [r2, #8]
 236:main.c        ****                     idx++;
  90              		.loc 1 236 0
  91 004a 5A1C     		adds	r2, r3, #1
  92 004c 6260     		str	r2, [r4, #4]
 237:main.c        ****                     xMessageBufferSendFromISR(xMessageBuffer, buf, idx, &xHigherPriorityTaskToken);
  93              		.loc 1 237 0
  94 004e 01AB     		add	r3, sp, #4
  95 0050 04F10801 		add	r1, r4, #8
  96 0054 E069     		ldr	r0, [r4, #28]
  97              	.LVL1:
  98 0056 FFF7FEFF 		bl	xStreamBufferSendFromISR
  99              	.LVL2:
 238:main.c        ****                     state = S_IDLE;
 100              		.loc 1 238 0
 101 005a 2570     		strb	r5, [r4]
 102 005c 04E0     		b	.L2
 103              	.LVL3:
 104              	.L7:
ARM GAS  C:\Users\vincent\AppData\Local\Temp\ccKOzO19.s 			page 7


 239:main.c        ****                 } else {
 240:main.c        ****                     buf[idx] = ch;
 105              		.loc 1 240 0
 106 005e 0649     		ldr	r1, .L10
 107 0060 C818     		adds	r0, r1, r3
 108              	.LVL4:
 109 0062 0272     		strb	r2, [r0, #8]
 241:main.c        ****                     idx++;
 110              		.loc 1 241 0
 111 0064 0133     		adds	r3, r3, #1
 112 0066 4B60     		str	r3, [r1, #4]
 113              	.L2:
 220:main.c        ****         ch = UART_GetChar();
 114              		.loc 1 220 0
 115 0068 FFF7FEFF 		bl	UART_GetRxBufferSize
 116              	.LVL5:
 117 006c 0028     		cmp	r0, #0
 118 006e CCD1     		bne	.L8
 242:main.c        ****                 }
 243:main.c        ****                 break;
 244:main.c        ****         }
 245:main.c        ****     }
 246:main.c        ****     
 247:main.c        ****     UART_ReadRxData();  // Clear UART INT signal
 119              		.loc 1 247 0
 120 0070 FFF7FEFF 		bl	UART_ReadRxData
 121              	.LVL6:
 248:main.c        **** }
 122              		.loc 1 248 0
 123 0074 03B0     		add	sp, sp, #12
 124              		.cfi_def_cfa_offset 12
 125              		@ sp needed
 126 0076 30BD     		pop	{r4, r5, pc}
 127              	.L11:
 128              		.align	2
 129              	.L10:
 130 0078 00000000 		.word	.LANCHOR0
 131              		.cfi_endproc
 132              	.LFE71:
 133              		.size	MyUartISR, .-MyUartISR
 134              		.global	__aeabi_dcmpeq
 135              		.section	.text.vDisplayData,"ax",%progbits
 136              		.align	2
 137              		.global	vDisplayData
 138              		.thumb
 139              		.thumb_func
 140              		.type	vDisplayData, %function
 141              	vDisplayData:
 142              	.LFB73:
 249:main.c        **** /*Read data from PhotoResistor, OutTEMP, InTemp, Humidifier.
 250:main.c        ****  output to queue buffer */
 251:main.c        **** void vGetData(void *pvParameters)
 252:main.c        **** {
 253:main.c        ****     Sensors 	sens;
 254:main.c        ****     uint8_t     i=0;
 255:main.c        ****     
 256:main.c        ****     while(1){
ARM GAS  C:\Users\vincent\AppData\Local\Temp\ccKOzO19.s 			page 8


 257:main.c        ****         //AMUX loop, we're pulling data in this order
 258:main.c        ****         for (i = 0; i < 3; i++){
 259:main.c        ****             AMUX_Select(i);
 260:main.c        ****             CyDelayUs(15);
 261:main.c        ****             SARADC_StartConvert();
 262:main.c        ****             SARADC_IsEndConversion(SARADC_WAIT_FOR_RESULT);
 263:main.c        ****             if (i == 0) {
 264:main.c        ****                 sens.data[i] = SARADC_GetResult16();
 265:main.c        ****             } 
 266:main.c        ****             else if ((i == 1 ) | (i == 2)){
 267:main.c        ****                 sens.data[i] = GetTemp();
 268:main.c        ****             }            
 269:main.c        ****         }
 270:main.c        ****         
 271:main.c        ****         // Convert PhotoResistor to high low sensor > 105 means its bright out so we set the variab
 272:main.c        ****         if (sens.data[0] > 105){
 273:main.c        ****             sens.data[0] = 0;
 274:main.c        ****         }else{
 275:main.c        ****             sens.data[0] = 1;
 276:main.c        ****         }
 277:main.c        ****         
 278:main.c        ****         //clean temperature data
 279:main.c        ****         for (i = 0; i < 2; i++){  
 280:main.c        ****             sens.data[i+1] = log(10000.0 * (256.0/sens.data[i+1] - 1));
 281:main.c        ****             sens.data[i+1] = 1 / (0.001129148 + (0.000234125 + (0.0000000876741 * sens.data[i+1] * 
 282:main.c        ****             sens.data[i+1] = sens.data[i+1] - 273.15;  
 283:main.c        ****         }
 284:main.c        ****         
 285:main.c        ****        while (xQueueSendToBack(xQueue, &sens, pdMS_TO_TICKS(10)) != pdPASS){};
 286:main.c        ****        vTaskDelay( pdMS_TO_TICKS(2000)); //Delay for 20ms
 287:main.c        ****        }
 288:main.c        **** }
 289:main.c        **** 
 290:main.c        **** 
 291:main.c        **** //Show our data locally via message/buffer on LCD screen
 292:main.c        **** void vDisplayData(void *pvParameters)
 293:main.c        **** {
 143              		.loc 1 293 0
 144              		.cfi_startproc
 145              		@ args = 0, pretend = 0, frame = 48
 146              		@ frame_needed = 0, uses_anonymous_args = 0
 147              	.LVL7:
 148 0000 30B5     		push	{r4, r5, lr}
 149              		.cfi_def_cfa_offset 12
 150              		.cfi_offset 4, -12
 151              		.cfi_offset 5, -8
 152              		.cfi_offset 14, -4
 153 0002 8DB0     		sub	sp, sp, #52
 154              		.cfi_def_cfa_offset 64
 155              	.LVL8:
 156              	.L13:
 294:main.c        ****    char        str[5];
 295:main.c        ****    Sensors      sens;
 296:main.c        ****     
 297:main.c        ****     while(1){
 298:main.c        ****         if (xQueueReceive(xQueue, &sens, 0) == pdPASS){
 157              		.loc 1 298 0
ARM GAS  C:\Users\vincent\AppData\Local\Temp\ccKOzO19.s 			page 9


 158 0004 0022     		movs	r2, #0
 159 0006 6946     		mov	r1, sp
 160 0008 244B     		ldr	r3, .L23
 161 000a 186A     		ldr	r0, [r3, #32]
 162 000c FFF7FEFF 		bl	xQueueReceive
 163              	.LVL9:
 164 0010 0128     		cmp	r0, #1
 165 0012 F7D1     		bne	.L13
 299:main.c        ****             
 300:main.c        ****             if (sens.data[0] == 1){
 166              		.loc 1 300 0
 167 0014 DDE90245 		ldrd	r4, [sp, #8]
 168 0018 0022     		movs	r2, #0
 169 001a 214B     		ldr	r3, .L23+4
 170 001c 2046     		mov	r0, r4
 171 001e 2946     		mov	r1, r5
 172 0020 FFF7FEFF 		bl	__aeabi_dcmpeq
 173              	.LVL10:
 174 0024 60B1     		cbz	r0, .L21
 301:main.c        ****                 LCD_Position(0,0);
 175              		.loc 1 301 0
 176 0026 0021     		movs	r1, #0
 177 0028 0846     		mov	r0, r1
 178 002a FFF7FEFF 		bl	LCD_Position
 179              	.LVL11:
 302:main.c        ****                 sprintf(str, "No Sunlight");
 180              		.loc 1 302 0
 181 002e 0AAB     		add	r3, sp, #40
 182 0030 1C4A     		ldr	r2, .L23+8
 183 0032 07CA     		ldmia	r2, {r0, r1, r2}
 184 0034 83E80700 		stmia	r3, {r0, r1, r2}
 303:main.c        ****                 LCD_PrintString(str);
 185              		.loc 1 303 0
 186 0038 1846     		mov	r0, r3
 187 003a FFF7FEFF 		bl	LCD_PrintString
 188              	.LVL12:
 189 003e 12E0     		b	.L16
 190              	.L21:
 304:main.c        ****             }
 305:main.c        ****             else if (sens.data[0] == 0){
 191              		.loc 1 305 0
 192 0040 0022     		movs	r2, #0
 193 0042 0023     		movs	r3, #0
 194 0044 2046     		mov	r0, r4
 195 0046 2946     		mov	r1, r5
 196 0048 FFF7FEFF 		bl	__aeabi_dcmpeq
 197              	.LVL13:
 198 004c 58B1     		cbz	r0, .L16
 306:main.c        ****                 LCD_Position(0,0);
 199              		.loc 1 306 0
 200 004e 0021     		movs	r1, #0
 201 0050 0846     		mov	r0, r1
 202 0052 FFF7FEFF 		bl	LCD_Position
 203              	.LVL14:
 307:main.c        ****                 sprintf(str, "Sunlight OK");
 204              		.loc 1 307 0
 205 0056 0AAB     		add	r3, sp, #40
ARM GAS  C:\Users\vincent\AppData\Local\Temp\ccKOzO19.s 			page 10


 206 0058 134A     		ldr	r2, .L23+12
 207 005a 07CA     		ldmia	r2, {r0, r1, r2}
 208 005c 83E80700 		stmia	r3, {r0, r1, r2}
 308:main.c        ****                 LCD_PrintString(str);
 209              		.loc 1 308 0
 210 0060 1846     		mov	r0, r3
 211 0062 FFF7FEFF 		bl	LCD_PrintString
 212              	.LVL15:
 213              	.L16:
 309:main.c        ****             }
 310:main.c        ****             sprintf(str, "OT%3.0f", sens.data[2]);
 214              		.loc 1 310 0
 215 0066 DDE90623 		ldrd	r2, [sp, #24]
 216 006a 1049     		ldr	r1, .L23+16
 217 006c 0AA8     		add	r0, sp, #40
 218 006e FFF7FEFF 		bl	sprintf
 219              	.LVL16:
 311:main.c        ****             LCD_Position(1,0);
 220              		.loc 1 311 0
 221 0072 0021     		movs	r1, #0
 222 0074 0120     		movs	r0, #1
 223 0076 FFF7FEFF 		bl	LCD_Position
 224              	.LVL17:
 312:main.c        ****             LCD_PrintString(str);
 225              		.loc 1 312 0
 226 007a 0AA8     		add	r0, sp, #40
 227 007c FFF7FEFF 		bl	LCD_PrintString
 228              	.LVL18:
 313:main.c        ****             sprintf(str, "IT%2.0f", sens.data[1]);
 229              		.loc 1 313 0
 230 0080 DDE90423 		ldrd	r2, [sp, #16]
 231 0084 0A49     		ldr	r1, .L23+20
 232 0086 0AA8     		add	r0, sp, #40
 233 0088 FFF7FEFF 		bl	sprintf
 234              	.LVL19:
 314:main.c        ****             LCD_Position(1,7);
 235              		.loc 1 314 0
 236 008c 0721     		movs	r1, #7
 237 008e 0120     		movs	r0, #1
 238 0090 FFF7FEFF 		bl	LCD_Position
 239              	.LVL20:
 315:main.c        ****             LCD_PrintString(str);
 240              		.loc 1 315 0
 241 0094 0AA8     		add	r0, sp, #40
 242 0096 FFF7FEFF 		bl	LCD_PrintString
 243              	.LVL21:
 244 009a B3E7     		b	.L13
 245              	.L24:
 246              		.align	2
 247              	.L23:
 248 009c 00000000 		.word	.LANCHOR0
 249 00a0 0000F03F 		.word	1072693248
 250 00a4 00000000 		.word	.LC0
 251 00a8 0C000000 		.word	.LC1
 252 00ac 18000000 		.word	.LC2
 253 00b0 20000000 		.word	.LC3
 254              		.cfi_endproc
ARM GAS  C:\Users\vincent\AppData\Local\Temp\ccKOzO19.s 			page 11


 255              	.LFE73:
 256              		.size	vDisplayData, .-vDisplayData
 257              		.section	.text.vUARTComm,"ax",%progbits
 258              		.align	2
 259              		.global	vUARTComm
 260              		.thumb
 261              		.thumb_func
 262              		.type	vUARTComm, %function
 263              	vUARTComm:
 264              	.LFB74:
 316:main.c        ****         
 317:main.c        ****         }
 318:main.c        ****         
 319:main.c        **** }
 320:main.c        ****     vTaskDelay(pdMS_TO_TICKS(1000)); //delay for 500ms
 321:main.c        **** }
 322:main.c        **** 
 323:main.c        **** //send or recieve UART data
 324:main.c        **** void vUARTComm(void *pvParameters)
 325:main.c        **** {
 265              		.loc 1 325 0
 266              		.cfi_startproc
 267              		@ args = 0, pretend = 0, frame = 72
 268              		@ frame_needed = 0, uses_anonymous_args = 0
 269              	.LVL22:
 270 0000 30B5     		push	{r4, r5, lr}
 271              		.cfi_def_cfa_offset 12
 272              		.cfi_offset 4, -12
 273              		.cfi_offset 5, -8
 274              		.cfi_offset 14, -4
 275 0002 97B0     		sub	sp, sp, #92
 276              		.cfi_def_cfa_offset 104
 277              	.LVL23:
 278              	.L26:
 326:main.c        ****    char        str[30];
 327:main.c        ****    Sensors      sens;
 328:main.c        ****     
 329:main.c        ****     while(1){
 330:main.c        ****         if (xQueueReceive(xQueue, &sens, 0) == pdPASS){
 279              		.loc 1 330 0
 280 0004 0022     		movs	r2, #0
 281 0006 04A9     		add	r1, sp, #16
 282 0008 1D4B     		ldr	r3, .L36
 283 000a 186A     		ldr	r0, [r3, #32]
 284 000c FFF7FEFF 		bl	xQueueReceive
 285              	.LVL24:
 286 0010 0128     		cmp	r0, #1
 287 0012 F7D1     		bne	.L26
 331:main.c        ****             if (sens.data[0] == 1){
 288              		.loc 1 331 0
 289 0014 DDE90645 		ldrd	r4, [sp, #24]
 290 0018 0022     		movs	r2, #0
 291 001a 1A4B     		ldr	r3, .L36+4
 292 001c 2046     		mov	r0, r4
 293 001e 2946     		mov	r1, r5
 294 0020 FFF7FEFF 		bl	__aeabi_dcmpeq
 295              	.LVL25:
ARM GAS  C:\Users\vincent\AppData\Local\Temp\ccKOzO19.s 			page 12


 296 0024 28B1     		cbz	r0, .L34
 332:main.c        ****                 sprintf(str, "+PRESON;");
 297              		.loc 1 332 0
 298 0026 184A     		ldr	r2, .L36+8
 299 0028 0EAB     		add	r3, sp, #56
 300 002a 07CA     		ldmia	r2, {r0, r1, r2}
 301 002c 03C3     		stmia	r3!, {r0, r1}
 302 002e 1A70     		strb	r2, [r3]
 303 0030 0BE0     		b	.L29
 304              	.L34:
 333:main.c        ****             }
 334:main.c        ****             else if (sens.data[0] == 0){
 305              		.loc 1 334 0
 306 0032 0022     		movs	r2, #0
 307 0034 0023     		movs	r3, #0
 308 0036 2046     		mov	r0, r4
 309 0038 2946     		mov	r1, r5
 310 003a FFF7FEFF 		bl	__aeabi_dcmpeq
 311              	.LVL26:
 312 003e 20B1     		cbz	r0, .L29
 335:main.c        ****                 sprintf(str, "+PRESOFF;");
 313              		.loc 1 335 0
 314 0040 124A     		ldr	r2, .L36+12
 315 0042 0EAB     		add	r3, sp, #56
 316 0044 07CA     		ldmia	r2, {r0, r1, r2}
 317 0046 03C3     		stmia	r3!, {r0, r1}
 318 0048 1A80     		strh	r2, [r3]	@ movhi
 319              	.L29:
 336:main.c        ****             }
 337:main.c        ****             sprintf(str, "%s+OTEMP:%3.0f;+INTEMP:%2.0f;", str, sens.data[2],sens.data[1]);
 320              		.loc 1 337 0
 321 004a DDE90823 		ldrd	r2, [sp, #32]
 322 004e CDE90223 		strd	r2, [sp, #8]
 323 0052 DDE90A23 		ldrd	r2, [sp, #40]
 324 0056 CDE90023 		strd	r2, [sp]
 325 005a 0EAA     		add	r2, sp, #56
 326 005c 0C49     		ldr	r1, .L36+16
 327 005e 1046     		mov	r0, r2
 328 0060 FFF7FEFF 		bl	sprintf
 329              	.LVL27:
 338:main.c        ****             UART_PutString(str);
 330              		.loc 1 338 0
 331 0064 0EA8     		add	r0, sp, #56
 332 0066 FFF7FEFF 		bl	UART_PutString
 333              	.LVL28:
 339:main.c        ****             sprintf(str, "\r\n");
 334              		.loc 1 339 0
 335 006a 0A4B     		ldr	r3, .L36+20
 336 006c 1B68     		ldr	r3, [r3]
 337 006e ADF83830 		strh	r3, [sp, #56]	@ movhi
 338 0072 1B0C     		lsrs	r3, r3, #16
 339 0074 8DF83A30 		strb	r3, [sp, #58]
 340:main.c        ****             UART_PutString(str);
 340              		.loc 1 340 0
 341 0078 0EA8     		add	r0, sp, #56
 342 007a FFF7FEFF 		bl	UART_PutString
 343              	.LVL29:
ARM GAS  C:\Users\vincent\AppData\Local\Temp\ccKOzO19.s 			page 13


 344 007e C1E7     		b	.L26
 345              	.L37:
 346              		.align	2
 347              	.L36:
 348 0080 00000000 		.word	.LANCHOR0
 349 0084 0000F03F 		.word	1072693248
 350 0088 28000000 		.word	.LC4
 351 008c 34000000 		.word	.LC5
 352 0090 40000000 		.word	.LC6
 353 0094 60000000 		.word	.LC7
 354              		.cfi_endproc
 355              	.LFE74:
 356              		.size	vUARTComm, .-vUARTComm
 357              		.section	.text.vTasks,"ax",%progbits
 358              		.align	2
 359              		.global	vTasks
 360              		.thumb
 361              		.thumb_func
 362              		.type	vTasks, %function
 363              	vTasks:
 364              	.LFB75:
 341:main.c        ****             
 342:main.c        ****         }
 343:main.c        ****         
 344:main.c        **** }
 345:main.c        ****     vTaskDelay(pdMS_TO_TICKS(1000)); //delay for 500ms
 346:main.c        **** }
 347:main.c        **** 
 348:main.c        **** 
 349:main.c        **** 
 350:main.c        **** //we're going to perform tasks based on what we get from UART
 351:main.c        **** void vTasks(void *pvParameters)
 352:main.c        **** {
 365              		.loc 1 352 0
 366              		.cfi_startproc
 367              		@ args = 0, pretend = 0, frame = 24
 368              		@ frame_needed = 0, uses_anonymous_args = 0
 369              	.LVL30:
 370 0000 10B5     		push	{r4, lr}
 371              		.cfi_def_cfa_offset 8
 372              		.cfi_offset 4, -8
 373              		.cfi_offset 14, -4
 374 0002 86B0     		sub	sp, sp, #24
 375              		.cfi_def_cfa_offset 32
 376 0004 0446     		mov	r4, r0
 377              	.LVL31:
 378              	.L39:
 353:main.c        **** 	MessageBufferHandle_t   xMesgBuf;
 354:main.c        ****     char                    buf[20];
 355:main.c        ****     char                    str[60];
 356:main.c        ****     size_t                  xReceivedBytes;
 357:main.c        ****     
 358:main.c        ****     
 359:main.c        ****    xMesgBuf = pvParameters;
 360:main.c        ****     
 361:main.c        ****     while(1){
 362:main.c        ****         xReceivedBytes = xMessageBufferReceive(xMesgBuf, buf, sizeof(buf), pdMS_TO_TICKS(20));
ARM GAS  C:\Users\vincent\AppData\Local\Temp\ccKOzO19.s 			page 14


 379              		.loc 1 362 0
 380 0006 1423     		movs	r3, #20
 381 0008 1A46     		mov	r2, r3
 382 000a 01A9     		add	r1, sp, #4
 383 000c 2046     		mov	r0, r4
 384 000e FFF7FEFF 		bl	xStreamBufferReceive
 385              	.LVL32:
 363:main.c        ****         if (xReceivedBytes > 0 ){
 386              		.loc 1 363 0
 387 0012 0028     		cmp	r0, #0
 388 0014 F7D0     		beq	.L39
 364:main.c        ****             //CHECK LED COMMAND
 365:main.c        ****             if (strcmp(buf, "LON") == 0) {
 389              		.loc 1 365 0
 390 0016 2449     		ldr	r1, .L50
 391 0018 01A8     		add	r0, sp, #4
 392              	.LVL33:
 393 001a FFF7FEFF 		bl	strcmp
 394              	.LVL34:
 395 001e 18B9     		cbnz	r0, .L40
 366:main.c        ****                 //Testing UART
 367:main.c        ****                 //UART_PutString("Turning on LED");
 368:main.c        ****                 //Turn on LED
 369:main.c        ****                 UVLight_Write(1);
 396              		.loc 1 369 0
 397 0020 0120     		movs	r0, #1
 398 0022 FFF7FEFF 		bl	UVLight_Write
 399              	.LVL35:
 400 0026 06E0     		b	.L41
 401              	.L40:
 370:main.c        ****                 
 371:main.c        ****             } else if (strcmp(buf, "LOFF") == 0){
 402              		.loc 1 371 0
 403 0028 2049     		ldr	r1, .L50+4
 404 002a 01A8     		add	r0, sp, #4
 405 002c FFF7FEFF 		bl	strcmp
 406              	.LVL36:
 407 0030 08B9     		cbnz	r0, .L41
 372:main.c        ****                 //Testing UART
 373:main.c        ****                 //UART_PutString("Turning off LED");
 374:main.c        ****                 //Turn off LED
 375:main.c        ****                 UVLight_Write(0);                
 408              		.loc 1 375 0
 409 0032 FFF7FEFF 		bl	UVLight_Write
 410              	.LVL37:
 411              	.L41:
 376:main.c        ****                 
 377:main.c        ****             }
 378:main.c        ****             
 379:main.c        ****             //Window Tasks
 380:main.c        ****             if (strcmp(buf, "WOPEN") == 0){
 412              		.loc 1 380 0
 413 0036 1E49     		ldr	r1, .L50+8
 414 0038 01A8     		add	r0, sp, #4
 415 003a FFF7FEFF 		bl	strcmp
 416              	.LVL38:
 417 003e 20B9     		cbnz	r0, .L42
ARM GAS  C:\Users\vincent\AppData\Local\Temp\ccKOzO19.s 			page 15


 381:main.c        ****                 //Testing UART
 382:main.c        ****                 //UART_PutString("Opening Window");
 383:main.c        ****                 //OPEN Window
 384:main.c        ****                 SERVOPWM_WriteCompare(18000);
 418              		.loc 1 384 0
 419 0040 44F25060 		movw	r0, #18000
 420 0044 FFF7FEFF 		bl	SERVOPWM_WriteCompare
 421              	.LVL39:
 422 0048 08E0     		b	.L43
 423              	.L42:
 385:main.c        ****                 
 386:main.c        ****                 
 387:main.c        ****             } else if (strcmp (buf, "WCLOSE") == 0){
 424              		.loc 1 387 0
 425 004a 1A49     		ldr	r1, .L50+12
 426 004c 01A8     		add	r0, sp, #4
 427 004e FFF7FEFF 		bl	strcmp
 428              	.LVL40:
 429 0052 18B9     		cbnz	r0, .L43
 388:main.c        ****                 //Testing UART
 389:main.c        ****                 //UART_PutString("Closing Window\n");
 390:main.c        ****                 //OPEN Window
 391:main.c        ****                  SERVOPWM_WriteCompare(19000);
 430              		.loc 1 391 0
 431 0054 44F63820 		movw	r0, #19000
 432 0058 FFF7FEFF 		bl	SERVOPWM_WriteCompare
 433              	.LVL41:
 434              	.L43:
 392:main.c        ****                     
 393:main.c        ****                     
 394:main.c        ****             }
 395:main.c        ****             
 396:main.c        ****             //Fan Tasks
 397:main.c        ****             if (strcmp(buf, "FON") == 0) {
 435              		.loc 1 397 0
 436 005c 1649     		ldr	r1, .L50+16
 437 005e 01A8     		add	r0, sp, #4
 438 0060 FFF7FEFF 		bl	strcmp
 439              	.LVL42:
 440 0064 18B9     		cbnz	r0, .L44
 398:main.c        ****                 //Testing UART
 399:main.c        ****                 //UART_PutString("Turning on FAN\n");
 400:main.c        ****                 //Fan on
 401:main.c        ****                 Fan_Write(1);
 441              		.loc 1 401 0
 442 0066 0120     		movs	r0, #1
 443 0068 FFF7FEFF 		bl	Fan_Write
 444              	.LVL43:
 445 006c 06E0     		b	.L45
 446              	.L44:
 402:main.c        ****             } else if (strcmp (buf, "FOFF") == 0) {
 447              		.loc 1 402 0
 448 006e 1349     		ldr	r1, .L50+20
 449 0070 01A8     		add	r0, sp, #4
 450 0072 FFF7FEFF 		bl	strcmp
 451              	.LVL44:
 452 0076 08B9     		cbnz	r0, .L45
ARM GAS  C:\Users\vincent\AppData\Local\Temp\ccKOzO19.s 			page 16


 403:main.c        ****                 //Testing UART
 404:main.c        ****                 //UART_PutString("Turning off FAN\n");
 405:main.c        ****                 //Fan off
 406:main.c        ****                 Fan_Write(0);
 453              		.loc 1 406 0
 454 0078 FFF7FEFF 		bl	Fan_Write
 455              	.LVL45:
 456              	.L45:
 407:main.c        ****             }
 408:main.c        ****             
 409:main.c        ****             //Heatpad Tasks
 410:main.c        ****             if (strcmp(buf, "HON") == 0){
 457              		.loc 1 410 0
 458 007c 1049     		ldr	r1, .L50+24
 459 007e 01A8     		add	r0, sp, #4
 460 0080 FFF7FEFF 		bl	strcmp
 461              	.LVL46:
 462 0084 18B9     		cbnz	r0, .L46
 411:main.c        ****                 //Testing UART
 412:main.c        ****                 //UART_PutString("Heating up!\n");
 413:main.c        ****                 //Turn on Heat Pad
 414:main.c        ****                 HeatPad_Write(1);
 463              		.loc 1 414 0
 464 0086 0120     		movs	r0, #1
 465 0088 FFF7FEFF 		bl	HeatPad_Write
 466              	.LVL47:
 467 008c 06E0     		b	.L47
 468              	.L46:
 415:main.c        ****             } else if (strcmp (buf, "HOFF") == 0){
 469              		.loc 1 415 0
 470 008e 0D49     		ldr	r1, .L50+28
 471 0090 01A8     		add	r0, sp, #4
 472 0092 FFF7FEFF 		bl	strcmp
 473              	.LVL48:
 474 0096 08B9     		cbnz	r0, .L47
 416:main.c        ****                 //Testing UART
 417:main.c        ****                 //UART_PutString("Heating off!\n");
 418:main.c        ****                 //Turn off Heat Pad
 419:main.c        ****                 HeatPad_Write(0);
 475              		.loc 1 419 0
 476 0098 FFF7FEFF 		bl	HeatPad_Write
 477              	.LVL49:
 478              	.L47:
 420:main.c        ****             }
 421:main.c        ****            
 422:main.c        ****         vTaskDelay(pdMS_TO_TICKS(1000));                
 479              		.loc 1 422 0
 480 009c 4FF47A70 		mov	r0, #1000
 481 00a0 FFF7FEFF 		bl	vTaskDelay
 482              	.LVL50:
 483 00a4 AFE7     		b	.L39
 484              	.L51:
 485 00a6 00BF     		.align	2
 486              	.L50:
 487 00a8 64000000 		.word	.LC8
 488 00ac 68000000 		.word	.LC9
 489 00b0 70000000 		.word	.LC10
ARM GAS  C:\Users\vincent\AppData\Local\Temp\ccKOzO19.s 			page 17


 490 00b4 78000000 		.word	.LC11
 491 00b8 80000000 		.word	.LC12
 492 00bc 84000000 		.word	.LC13
 493 00c0 8C000000 		.word	.LC14
 494 00c4 90000000 		.word	.LC15
 495              		.cfi_endproc
 496              	.LFE75:
 497              		.size	vTasks, .-vTasks
 498              		.section	.text.MyPSOCSetup,"ax",%progbits
 499              		.align	2
 500              		.global	MyPSOCSetup
 501              		.thumb
 502              		.thumb_func
 503              		.type	MyPSOCSetup, %function
 504              	MyPSOCSetup:
 505              	.LFB70:
 187:main.c        ****     LCD_Start();
 506              		.loc 1 187 0
 507              		.cfi_startproc
 508              		@ args = 0, pretend = 0, frame = 0
 509              		@ frame_needed = 0, uses_anonymous_args = 0
 510 0000 08B5     		push	{r3, lr}
 511              		.cfi_def_cfa_offset 8
 512              		.cfi_offset 3, -8
 513              		.cfi_offset 14, -4
 188:main.c        ****     LCD_ClearDisplay();
 514              		.loc 1 188 0
 515 0002 FFF7FEFF 		bl	LCD_Start
 516              	.LVL51:
 189:main.c        ****     LCD_Position(0,0);
 517              		.loc 1 189 0
 518 0006 0120     		movs	r0, #1
 519 0008 FFF7FEFF 		bl	LCD_WriteControl
 520              	.LVL52:
 190:main.c        ****     LCD_PrintString("EE4450 FREERTOS");
 521              		.loc 1 190 0
 522 000c 0021     		movs	r1, #0
 523 000e 0846     		mov	r0, r1
 524 0010 FFF7FEFF 		bl	LCD_Position
 525              	.LVL53:
 191:main.c        ****     LCD_ClearDisplay();
 526              		.loc 1 191 0
 527 0014 0948     		ldr	r0, .L54
 528 0016 FFF7FEFF 		bl	LCD_PrintString
 529              	.LVL54:
 192:main.c        ****     CyDelay(1000);
 530              		.loc 1 192 0
 531 001a 0120     		movs	r0, #1
 532 001c FFF7FEFF 		bl	LCD_WriteControl
 533              	.LVL55:
 193:main.c        ****     
 534              		.loc 1 193 0
 535 0020 4FF47A70 		mov	r0, #1000
 536 0024 FFF7FEFF 		bl	CyDelay
 537              	.LVL56:
 195:main.c        ****     UART_Start();
 538              		.loc 1 195 0
ARM GAS  C:\Users\vincent\AppData\Local\Temp\ccKOzO19.s 			page 18


 539 0028 0548     		ldr	r0, .L54+4
 540 002a FFF7FEFF 		bl	ISR_UART_StartEx
 541              	.LVL57:
 196:main.c        ****     UART_ClearRxBuffer();
 542              		.loc 1 196 0
 543 002e FFF7FEFF 		bl	UART_Start
 544              	.LVL58:
 197:main.c        ****     UART_ClearTxBuffer();
 545              		.loc 1 197 0
 546 0032 FFF7FEFF 		bl	UART_ClearRxBuffer
 547              	.LVL59:
 198:main.c        ****     //UART_PutString("Team 10 Greenhouse Final!");
 548              		.loc 1 198 0
 549 0036 FFF7FEFF 		bl	UART_ClearTxBuffer
 550              	.LVL60:
 551 003a 08BD     		pop	{r3, pc}
 552              	.L55:
 553              		.align	2
 554              	.L54:
 555 003c 98000000 		.word	.LC16
 556 0040 00000000 		.word	MyUartISR
 557              		.cfi_endproc
 558              	.LFE70:
 559              		.size	MyPSOCSetup, .-MyPSOCSetup
 560              		.section	.text.main,"ax",%progbits
 561              		.align	2
 562              		.global	main
 563              		.thumb
 564              		.thumb_func
 565              		.type	main, %function
 566              	main:
 567              	.LFB69:
  94:main.c        ****     
 568              		.loc 1 94 0
 569              		.cfi_startproc
 570              		@ args = 0, pretend = 0, frame = 0
 571              		@ frame_needed = 0, uses_anonymous_args = 0
 572 0000 00B5     		push	{lr}
 573              		.cfi_def_cfa_offset 4
 574              		.cfi_offset 14, -4
 575 0002 83B0     		sub	sp, sp, #12
 576              		.cfi_def_cfa_offset 16
 101:main.c        ****     MyPSOCSetup();
 577              		.loc 1 101 0
 578 0004 FFF7FEFF 		bl	AMUX_Start
 579              	.LVL61:
 102:main.c        ****     SARADC_Start();
 580              		.loc 1 102 0
 581 0008 FFF7FEFF 		bl	MyPSOCSetup
 582              	.LVL62:
 103:main.c        ****     FreeRTOS_Init();
 583              		.loc 1 103 0
 584 000c FFF7FEFF 		bl	SARADC_Start
 585              	.LVL63:
 104:main.c        ****     SERVOPWM_Start();
 586              		.loc 1 104 0
 587 0010 FFF7FEFF 		bl	FreeRTOS_Init
ARM GAS  C:\Users\vincent\AppData\Local\Temp\ccKOzO19.s 			page 19


 588              	.LVL64:
 105:main.c        ****     
 589              		.loc 1 105 0
 590 0014 FFF7FEFF 		bl	SERVOPWM_Start
 591              	.LVL65:
 108:main.c        ****     
 592              		.loc 1 108 0
 593 0018 0122     		movs	r2, #1
 594 001a 0021     		movs	r1, #0
 595 001c 6420     		movs	r0, #100
 596 001e FFF7FEFF 		bl	xStreamBufferGenericCreate
 597              	.LVL66:
 598 0022 364B     		ldr	r3, .L71
 599 0024 D861     		str	r0, [r3, #28]
 111:main.c        ****         // If message buffer was NOT created successfully
 600              		.loc 1 111 0
 601 0026 38B9     		cbnz	r0, .L57
 113:main.c        ****         LCD_PrintString("Can't create MsgBuf");
 602              		.loc 1 113 0
 603 0028 0021     		movs	r1, #0
 604 002a 0120     		movs	r0, #1
 605 002c FFF7FEFF 		bl	LCD_Position
 606              	.LVL67:
 114:main.c        ****         while(1);
 607              		.loc 1 114 0
 608 0030 3348     		ldr	r0, .L71+4
 609 0032 FFF7FEFF 		bl	LCD_PrintString
 610              	.LVL68:
 611              	.L58:
 612 0036 FEE7     		b	.L58
 613              	.L57:
 119:main.c        ****     if (xQueue == NULL) {
 614              		.loc 1 119 0
 615 0038 0022     		movs	r2, #0
 616 003a 2821     		movs	r1, #40
 617 003c 0820     		movs	r0, #8
 618 003e FFF7FEFF 		bl	xQueueGenericCreate
 619              	.LVL69:
 620 0042 2E4B     		ldr	r3, .L71
 621 0044 1862     		str	r0, [r3, #32]
 120:main.c        ****         LCD_Position(1,0);    
 622              		.loc 1 120 0
 623 0046 38B9     		cbnz	r0, .L59
 121:main.c        ****         LCD_PrintString("QUEUE ERROR");
 624              		.loc 1 121 0
 625 0048 0021     		movs	r1, #0
 626 004a 0120     		movs	r0, #1
 627 004c FFF7FEFF 		bl	LCD_Position
 628              	.LVL70:
 122:main.c        ****         while(1);
 629              		.loc 1 122 0
 630 0050 2C48     		ldr	r0, .L71+8
 631 0052 FFF7FEFF 		bl	LCD_PrintString
 632              	.LVL71:
 633              	.L60:
 634 0056 FEE7     		b	.L60
 635              	.L59:
ARM GAS  C:\Users\vincent\AppData\Local\Temp\ccKOzO19.s 			page 20


 127:main.c        ****                             "LCD Task", 
 636              		.loc 1 127 0
 637 0058 0023     		movs	r3, #0
 638 005a 0193     		str	r3, [sp, #4]
 639 005c 0422     		movs	r2, #4
 640 005e 0092     		str	r2, [sp]
 641 0060 C822     		movs	r2, #200
 642 0062 2949     		ldr	r1, .L71+12
 643 0064 2948     		ldr	r0, .L71+16
 644 0066 FFF7FEFF 		bl	xTaskCreate
 645              	.LVL72:
 135:main.c        ****         LCD_Position(1,0);
 646              		.loc 1 135 0
 647 006a 0128     		cmp	r0, #1
 648 006c 07D0     		beq	.L61
 136:main.c        ****         LCD_PrintString("Cannot create Task!");
 649              		.loc 1 136 0
 650 006e 0021     		movs	r1, #0
 651 0070 0120     		movs	r0, #1
 652              	.LVL73:
 653 0072 FFF7FEFF 		bl	LCD_Position
 654              	.LVL74:
 137:main.c        ****         while(1){};
 655              		.loc 1 137 0
 656 0076 2648     		ldr	r0, .L71+20
 657 0078 FFF7FEFF 		bl	LCD_PrintString
 658              	.LVL75:
 659              	.L62:
 660 007c FEE7     		b	.L62
 661              	.LVL76:
 662              	.L61:
 140:main.c        ****                             "Show Readings", 
 663              		.loc 1 140 0
 664 007e 0023     		movs	r3, #0
 665 0080 0193     		str	r3, [sp, #4]
 666 0082 0422     		movs	r2, #4
 667 0084 0092     		str	r2, [sp]
 668 0086 C822     		movs	r2, #200
 669 0088 2249     		ldr	r1, .L71+24
 670 008a 2348     		ldr	r0, .L71+28
 671              	.LVL77:
 672 008c FFF7FEFF 		bl	xTaskCreate
 673              	.LVL78:
 147:main.c        ****         LCD_Position(1,0);
 674              		.loc 1 147 0
 675 0090 0128     		cmp	r0, #1
 676 0092 07D0     		beq	.L63
 148:main.c        ****         LCD_PrintString("Cannot create Task!");
 677              		.loc 1 148 0
 678 0094 0021     		movs	r1, #0
 679 0096 0120     		movs	r0, #1
 680              	.LVL79:
 681 0098 FFF7FEFF 		bl	LCD_Position
 682              	.LVL80:
 149:main.c        ****         while(1){};
 683              		.loc 1 149 0
 684 009c 1C48     		ldr	r0, .L71+20
ARM GAS  C:\Users\vincent\AppData\Local\Temp\ccKOzO19.s 			page 21


 685 009e FFF7FEFF 		bl	LCD_PrintString
 686              	.LVL81:
 687              	.L64:
 688 00a2 FEE7     		b	.L64
 689              	.LVL82:
 690              	.L63:
 153:main.c        ****                             "UART SynC", 
 691              		.loc 1 153 0
 692 00a4 0023     		movs	r3, #0
 693 00a6 0193     		str	r3, [sp, #4]
 694 00a8 0422     		movs	r2, #4
 695 00aa 0092     		str	r2, [sp]
 696 00ac C822     		movs	r2, #200
 697 00ae 1B49     		ldr	r1, .L71+32
 698 00b0 1B48     		ldr	r0, .L71+36
 699              	.LVL83:
 700 00b2 FFF7FEFF 		bl	xTaskCreate
 701              	.LVL84:
 160:main.c        ****         LCD_Position(1,0);
 702              		.loc 1 160 0
 703 00b6 0128     		cmp	r0, #1
 704 00b8 07D0     		beq	.L65
 161:main.c        ****         LCD_PrintString("Cannot create Task!");
 705              		.loc 1 161 0
 706 00ba 0021     		movs	r1, #0
 707 00bc 0120     		movs	r0, #1
 708              	.LVL85:
 709 00be FFF7FEFF 		bl	LCD_Position
 710              	.LVL86:
 162:main.c        ****         while(1){};
 711              		.loc 1 162 0
 712 00c2 1348     		ldr	r0, .L71+20
 713 00c4 FFF7FEFF 		bl	LCD_PrintString
 714              	.LVL87:
 715              	.L66:
 716 00c8 FEE7     		b	.L66
 717              	.LVL88:
 718              	.L65:
 166:main.c        ****                             "Adujusting Greenhouse", 
 719              		.loc 1 166 0
 720 00ca 0C4B     		ldr	r3, .L71
 721 00cc DB69     		ldr	r3, [r3, #28]
 722 00ce 0022     		movs	r2, #0
 723 00d0 0192     		str	r2, [sp, #4]
 724 00d2 0622     		movs	r2, #6
 725 00d4 0092     		str	r2, [sp]
 726 00d6 C822     		movs	r2, #200
 727 00d8 1249     		ldr	r1, .L71+40
 728 00da 1348     		ldr	r0, .L71+44
 729              	.LVL89:
 730 00dc FFF7FEFF 		bl	xTaskCreate
 731              	.LVL90:
 173:main.c        ****         LCD_Position(1,0);
 732              		.loc 1 173 0
 733 00e0 0128     		cmp	r0, #1
 734 00e2 07D0     		beq	.L67
 174:main.c        ****         LCD_PrintString("Cannot create Task!");
ARM GAS  C:\Users\vincent\AppData\Local\Temp\ccKOzO19.s 			page 22


 735              		.loc 1 174 0
 736 00e4 0021     		movs	r1, #0
 737 00e6 0120     		movs	r0, #1
 738              	.LVL91:
 739 00e8 FFF7FEFF 		bl	LCD_Position
 740              	.LVL92:
 175:main.c        ****         while(1){};
 741              		.loc 1 175 0
 742 00ec 0848     		ldr	r0, .L71+20
 743 00ee FFF7FEFF 		bl	LCD_PrintString
 744              	.LVL93:
 745              	.L68:
 746 00f2 FEE7     		b	.L68
 747              	.LVL94:
 748              	.L67:
 179:main.c        ****     
 749              		.loc 1 179 0
 750 00f4 FFF7FEFF 		bl	vTaskStartScheduler
 751              	.LVL95:
 752              	.L69:
 753 00f8 FEE7     		b	.L69
 754              	.L72:
 755 00fa 00BF     		.align	2
 756              	.L71:
 757 00fc 00000000 		.word	.LANCHOR0
 758 0100 A8000000 		.word	.LC17
 759 0104 BC000000 		.word	.LC18
 760 0108 C8000000 		.word	.LC19
 761 010c 00000000 		.word	vGetData
 762 0110 D4000000 		.word	.LC20
 763 0114 E8000000 		.word	.LC21
 764 0118 00000000 		.word	vDisplayData
 765 011c F8000000 		.word	.LC22
 766 0120 00000000 		.word	vUARTComm
 767 0124 04010000 		.word	.LC23
 768 0128 00000000 		.word	vTasks
 769              		.cfi_endproc
 770              	.LFE69:
 771              		.size	main, .-main
 772              		.global	__aeabi_i2f
 773              		.global	__aeabi_fadd
 774              		.global	__aeabi_fdiv
 775              		.section	.text.GetTemp,"ax",%progbits
 776              		.align	2
 777              		.global	GetTemp
 778              		.thumb
 779              		.thumb_func
 780              		.type	GetTemp, %function
 781              	GetTemp:
 782              	.LFB76:
 423:main.c        ****                 
 424:main.c        ****         
 425:main.c        ****     }
 426:main.c        ****     }
 427:main.c        ****     
 428:main.c        ****     
 429:main.c        **** }
ARM GAS  C:\Users\vincent\AppData\Local\Temp\ccKOzO19.s 			page 23


 430:main.c        **** //Our Calculate Temperature reading
 431:main.c        **** float GetTemp(void)
 432:main.c        **** {
 783              		.loc 1 432 0
 784              		.cfi_startproc
 785              		@ args = 0, pretend = 0, frame = 0
 786              		@ frame_needed = 0, uses_anonymous_args = 0
 787 0000 38B5     		push	{r3, r4, r5, lr}
 788              		.cfi_def_cfa_offset 16
 789              		.cfi_offset 3, -16
 790              		.cfi_offset 4, -12
 791              		.cfi_offset 5, -8
 792              		.cfi_offset 14, -4
 793              	.LVL96:
 433:main.c        ****     float   temp = 0;
 434:main.c        ****     int     i;
 435:main.c        ****     for (i=0; i < 10; i++) {
 794              		.loc 1 435 0
 795 0002 0024     		movs	r4, #0
 433:main.c        ****     float   temp = 0;
 796              		.loc 1 433 0
 797 0004 0025     		movs	r5, #0
 798              		.loc 1 435 0
 799 0006 09E0     		b	.L74
 800              	.LVL97:
 801              	.L75:
 436:main.c        ****         temp = (temp + SARADC_GetResult16());
 802              		.loc 1 436 0 discriminator 3
 803 0008 FFF7FEFF 		bl	SARADC_GetResult16
 804              	.LVL98:
 805 000c FFF7FEFF 		bl	__aeabi_i2f
 806              	.LVL99:
 807 0010 0146     		mov	r1, r0
 808 0012 2846     		mov	r0, r5
 809 0014 FFF7FEFF 		bl	__aeabi_fadd
 810              	.LVL100:
 811 0018 0546     		mov	r5, r0
 812              	.LVL101:
 435:main.c        ****         temp = (temp + SARADC_GetResult16());
 813              		.loc 1 435 0 discriminator 3
 814 001a 0134     		adds	r4, r4, #1
 815              	.LVL102:
 816              	.L74:
 435:main.c        ****         temp = (temp + SARADC_GetResult16());
 817              		.loc 1 435 0 is_stmt 0 discriminator 1
 818 001c 092C     		cmp	r4, #9
 819 001e F3DD     		ble	.L75
 437:main.c        ****     }
 438:main.c        ****     temp = temp / 10;
 820              		.loc 1 438 0 is_stmt 1
 821 0020 0249     		ldr	r1, .L77
 822 0022 2846     		mov	r0, r5
 823 0024 FFF7FEFF 		bl	__aeabi_fdiv
 824              	.LVL103:
 439:main.c        ****     
 440:main.c        ****     return temp;
 441:main.c        **** }   
ARM GAS  C:\Users\vincent\AppData\Local\Temp\ccKOzO19.s 			page 24


 825              		.loc 1 441 0
 826 0028 38BD     		pop	{r3, r4, r5, pc}
 827              	.LVL104:
 828              	.L78:
 829 002a 00BF     		.align	2
 830              	.L77:
 831 002c 00002041 		.word	1092616192
 832              		.cfi_endproc
 833              	.LFE76:
 834              		.size	GetTemp, .-GetTemp
 835              		.global	__aeabi_i2d
 836              		.global	__aeabi_f2d
 837              		.global	__aeabi_dcmpgt
 838              		.global	__aeabi_ddiv
 839              		.global	__aeabi_dsub
 840              		.global	__aeabi_dmul
 841              		.global	__aeabi_dadd
 842              		.section	.text.vGetData,"ax",%progbits
 843              		.align	2
 844              		.global	vGetData
 845              		.thumb
 846              		.thumb_func
 847              		.type	vGetData, %function
 848              	vGetData:
 849              	.LFB72:
 252:main.c        ****     Sensors 	sens;
 850              		.loc 1 252 0
 851              		.cfi_startproc
 852              		@ args = 0, pretend = 0, frame = 40
 853              		@ frame_needed = 0, uses_anonymous_args = 0
 854              	.LVL105:
 855 0000 F0B5     		push	{r4, r5, r6, r7, lr}
 856              		.cfi_def_cfa_offset 20
 857              		.cfi_offset 4, -20
 858              		.cfi_offset 5, -16
 859              		.cfi_offset 6, -12
 860              		.cfi_offset 7, -8
 861              		.cfi_offset 14, -4
 862 0002 8BB0     		sub	sp, sp, #44
 863              		.cfi_def_cfa_offset 64
 864              	.LVL106:
 865              	.L90:
 258:main.c        ****             AMUX_Select(i);
 866              		.loc 1 258 0
 867 0004 0024     		movs	r4, #0
 868 0006 26E0     		b	.L80
 869              	.LVL107:
 870              	.L83:
 259:main.c        ****             CyDelayUs(15);
 871              		.loc 1 259 0
 872 0008 2046     		mov	r0, r4
 873 000a FFF7FEFF 		bl	AMUX_Select
 874              	.LVL108:
 260:main.c        ****             SARADC_StartConvert();
 875              		.loc 1 260 0
 876 000e 0F20     		movs	r0, #15
 877 0010 FFF7FEFF 		bl	CyDelayUs
ARM GAS  C:\Users\vincent\AppData\Local\Temp\ccKOzO19.s 			page 25


 878              	.LVL109:
 261:main.c        ****             SARADC_IsEndConversion(SARADC_WAIT_FOR_RESULT);
 879              		.loc 1 261 0
 880 0014 FFF7FEFF 		bl	SARADC_StartConvert
 881              	.LVL110:
 262:main.c        ****             if (i == 0) {
 882              		.loc 1 262 0
 883 0018 0020     		movs	r0, #0
 884 001a FFF7FEFF 		bl	SARADC_IsEndConversion
 885              	.LVL111:
 263:main.c        ****                 sens.data[i] = SARADC_GetResult16();
 886              		.loc 1 263 0
 887 001e 54B9     		cbnz	r4, .L81
 264:main.c        ****             } 
 888              		.loc 1 264 0
 889 0020 FFF7FEFF 		bl	SARADC_GetResult16
 890              	.LVL112:
 891 0024 651C     		adds	r5, r4, #1
 892 0026 0AAB     		add	r3, sp, #40
 893 0028 03EBC505 		add	r5, r3, r5, lsl #3
 894 002c FFF7FEFF 		bl	__aeabi_i2d
 895              	.LVL113:
 896 0030 45E90A01 		strd	r0, [r5, #-40]
 897 0034 0DE0     		b	.L82
 898              	.L81:
 266:main.c        ****                 sens.data[i] = GetTemp();
 899              		.loc 1 266 0
 900 0036 631E     		subs	r3, r4, #1
 901 0038 DBB2     		uxtb	r3, r3
 902 003a 012B     		cmp	r3, #1
 903 003c 09D8     		bhi	.L82
 267:main.c        ****             }            
 904              		.loc 1 267 0
 905 003e FFF7FEFF 		bl	GetTemp
 906              	.LVL114:
 907 0042 651C     		adds	r5, r4, #1
 908 0044 0AAB     		add	r3, sp, #40
 909 0046 03EBC505 		add	r5, r3, r5, lsl #3
 910 004a FFF7FEFF 		bl	__aeabi_f2d
 911              	.LVL115:
 912 004e 45E90A01 		strd	r0, [r5, #-40]
 913              	.L82:
 258:main.c        ****             AMUX_Select(i);
 914              		.loc 1 258 0 discriminator 2
 915 0052 0134     		adds	r4, r4, #1
 916              	.LVL116:
 917 0054 E4B2     		uxtb	r4, r4
 918              	.LVL117:
 919              	.L80:
 258:main.c        ****             AMUX_Select(i);
 920              		.loc 1 258 0 is_stmt 0 discriminator 1
 921 0056 022C     		cmp	r4, #2
 922 0058 D6D9     		bls	.L83
 272:main.c        ****             sens.data[0] = 0;
 923              		.loc 1 272 0 is_stmt 1
 924 005a 0022     		movs	r2, #0
 925 005c 3C4B     		ldr	r3, .L94+40
ARM GAS  C:\Users\vincent\AppData\Local\Temp\ccKOzO19.s 			page 26


 926 005e DDE90201 		ldrd	r0, [sp, #8]
 927 0062 FFF7FEFF 		bl	__aeabi_dcmpgt
 928              	.LVL118:
 929 0066 28B1     		cbz	r0, .L92
 273:main.c        ****         }else{
 930              		.loc 1 273 0
 931 0068 0022     		movs	r2, #0
 932 006a 0023     		movs	r3, #0
 933 006c CDE90223 		strd	r2, [sp, #8]
 934              	.L87:
 258:main.c        ****             AMUX_Select(i);
 935              		.loc 1 258 0 discriminator 1
 936 0070 0023     		movs	r3, #0
 937 0072 49E0     		b	.L86
 938              	.L92:
 275:main.c        ****         }
 939              		.loc 1 275 0
 940 0074 0022     		movs	r2, #0
 941 0076 374B     		ldr	r3, .L94+44
 942 0078 CDE90223 		strd	r2, [sp, #8]
 943 007c F8E7     		b	.L87
 944              	.LVL119:
 945              	.L88:
 280:main.c        ****             sens.data[i+1] = 1 / (0.001129148 + (0.000234125 + (0.0000000876741 * sens.data[i+1] * 
 946              		.loc 1 280 0 discriminator 3
 947 007e 5C1C     		adds	r4, r3, #1
 948 0080 9D1C     		adds	r5, r3, #2
 949 0082 0AAB     		add	r3, sp, #40
 950              	.LVL120:
 951 0084 03EBC505 		add	r5, r3, r5, lsl #3
 952 0088 55E90A23 		ldrd	r2, [r5, #-40]
 953 008c 0020     		movs	r0, #0
 954 008e 3249     		ldr	r1, .L94+48
 955 0090 FFF7FEFF 		bl	__aeabi_ddiv
 956              	.LVL121:
 957 0094 0022     		movs	r2, #0
 958 0096 2F4B     		ldr	r3, .L94+44
 959 0098 FFF7FEFF 		bl	__aeabi_dsub
 960              	.LVL122:
 961 009c 22A3     		adr	r3, .L94
 962 009e D3E90023 		ldrd	r2, [r3]
 963 00a2 FFF7FEFF 		bl	__aeabi_dmul
 964              	.LVL123:
 965 00a6 FFF7FEFF 		bl	log
 966              	.LVL124:
 967 00aa 0646     		mov	r6, r0
 968 00ac 0F46     		mov	r7, r1
 969 00ae 45E90A67 		strd	r6, [r5, #-40]
 281:main.c        ****             sens.data[i+1] = sens.data[i+1] - 273.15;  
 970              		.loc 1 281 0 discriminator 3
 971 00b2 1FA3     		adr	r3, .L94+8
 972 00b4 D3E90023 		ldrd	r2, [r3]
 973 00b8 FFF7FEFF 		bl	__aeabi_dmul
 974              	.LVL125:
 975 00bc 0246     		mov	r2, r0
 976 00be 0B46     		mov	r3, r1
 977 00c0 3046     		mov	r0, r6
ARM GAS  C:\Users\vincent\AppData\Local\Temp\ccKOzO19.s 			page 27


 978 00c2 3946     		mov	r1, r7
 979 00c4 FFF7FEFF 		bl	__aeabi_dmul
 980              	.LVL126:
 981 00c8 1BA3     		adr	r3, .L94+16
 982 00ca D3E90023 		ldrd	r2, [r3]
 983 00ce FFF7FEFF 		bl	__aeabi_dadd
 984              	.LVL127:
 985 00d2 0246     		mov	r2, r0
 986 00d4 0B46     		mov	r3, r1
 987 00d6 3046     		mov	r0, r6
 988 00d8 3946     		mov	r1, r7
 989 00da FFF7FEFF 		bl	__aeabi_dmul
 990              	.LVL128:
 991 00de 18A3     		adr	r3, .L94+24
 992 00e0 D3E90023 		ldrd	r2, [r3]
 993 00e4 FFF7FEFF 		bl	__aeabi_dadd
 994              	.LVL129:
 995 00e8 0246     		mov	r2, r0
 996 00ea 0B46     		mov	r3, r1
 997 00ec 0020     		movs	r0, #0
 998 00ee 1949     		ldr	r1, .L94+44
 999 00f0 FFF7FEFF 		bl	__aeabi_ddiv
 1000              	.LVL130:
 1001 00f4 45E90A01 		strd	r0, [r5, #-40]
 282:main.c        ****         }
 1002              		.loc 1 282 0 discriminator 3
 1003 00f8 13A3     		adr	r3, .L94+32
 1004 00fa D3E90023 		ldrd	r2, [r3]
 1005 00fe FFF7FEFF 		bl	__aeabi_dsub
 1006              	.LVL131:
 1007 0102 45E90A01 		strd	r0, [r5, #-40]
 279:main.c        ****             sens.data[i+1] = log(10000.0 * (256.0/sens.data[i+1] - 1));
 1008              		.loc 1 279 0 discriminator 3
 1009 0106 E3B2     		uxtb	r3, r4
 1010              	.LVL132:
 1011              	.L86:
 279:main.c        ****             sens.data[i+1] = log(10000.0 * (256.0/sens.data[i+1] - 1));
 1012              		.loc 1 279 0 is_stmt 0 discriminator 1
 1013 0108 012B     		cmp	r3, #1
 1014 010a B8D9     		bls	.L88
 1015              	.LVL133:
 1016              	.L89:
 285:main.c        ****        vTaskDelay( pdMS_TO_TICKS(2000)); //Delay for 20ms
 1017              		.loc 1 285 0 is_stmt 1 discriminator 1
 1018 010c 0023     		movs	r3, #0
 1019 010e 0A22     		movs	r2, #10
 1020 0110 6946     		mov	r1, sp
 1021 0112 1248     		ldr	r0, .L94+52
 1022 0114 006A     		ldr	r0, [r0, #32]
 1023 0116 FFF7FEFF 		bl	xQueueGenericSend
 1024              	.LVL134:
 1025 011a 0128     		cmp	r0, #1
 1026 011c F6D1     		bne	.L89
 286:main.c        ****        }
 1027              		.loc 1 286 0
 1028 011e 4FF4FA60 		mov	r0, #2000
 1029 0122 FFF7FEFF 		bl	vTaskDelay
ARM GAS  C:\Users\vincent\AppData\Local\Temp\ccKOzO19.s 			page 28


 1030              	.LVL135:
 287:main.c        **** }
 1031              		.loc 1 287 0
 1032 0126 6DE7     		b	.L90
 1033              	.L95:
 1034              		.align	3
 1035              	.L94:
 1036 0128 00000000 		.word	0
 1037 012c 0088C340 		.word	1086556160
 1038 0130 190D1714 		.word	337055001
 1039 0134 EB88773E 		.word	1048021227
 1040 0138 C2C3B46F 		.word	1874117570
 1041 013c EEAF2E3F 		.word	1060024302
 1042 0140 90B8DE6E 		.word	1860090000
 1043 0144 FD7F523F 		.word	1062371325
 1044 0148 66666666 		.word	1717986918
 1045 014c 66127140 		.word	1081152102
 1046 0150 00405A40 		.word	1079656448
 1047 0154 0000F03F 		.word	1072693248
 1048 0158 00007040 		.word	1081081856
 1049 015c 00000000 		.word	.LANCHOR0
 1050              		.cfi_endproc
 1051              	.LFE72:
 1052              		.size	vGetData, .-vGetData
 1053              		.global	xQueue
 1054              		.comm	xTask4,4,4
 1055              		.global	xMessageBuffer
 1056              		.section	.rodata.str1.4,"aMS",%progbits,1
 1057              		.align	2
 1058              	.LC0:
 1059 0000 4E6F2053 		.ascii	"No Sunlight\000"
 1059      756E6C69 
 1059      67687400 
 1060              	.LC1:
 1061 000c 53756E6C 		.ascii	"Sunlight OK\000"
 1061      69676874 
 1061      204F4B00 
 1062              	.LC2:
 1063 0018 4F542533 		.ascii	"OT%3.0f\000"
 1063      2E306600 
 1064              	.LC3:
 1065 0020 49542532 		.ascii	"IT%2.0f\000"
 1065      2E306600 
 1066              	.LC4:
 1067 0028 2B505245 		.ascii	"+PRESON;\000"
 1067      534F4E3B 
 1067      00
 1068 0031 000000   		.space	3
 1069              	.LC5:
 1070 0034 2B505245 		.ascii	"+PRESOFF;\000"
 1070      534F4646 
 1070      3B00
 1071 003e 0000     		.space	2
 1072              	.LC6:
 1073 0040 25732B4F 		.ascii	"%s+OTEMP:%3.0f;+INTEMP:%2.0f;\000"
 1073      54454D50 
 1073      3A25332E 
ARM GAS  C:\Users\vincent\AppData\Local\Temp\ccKOzO19.s 			page 29


 1073      30663B2B 
 1073      494E5445 
 1074 005e 0000     		.space	2
 1075              	.LC7:
 1076 0060 0D0A00   		.ascii	"\015\012\000"
 1077 0063 00       		.space	1
 1078              	.LC8:
 1079 0064 4C4F4E00 		.ascii	"LON\000"
 1080              	.LC9:
 1081 0068 4C4F4646 		.ascii	"LOFF\000"
 1081      00
 1082 006d 000000   		.space	3
 1083              	.LC10:
 1084 0070 574F5045 		.ascii	"WOPEN\000"
 1084      4E00
 1085 0076 0000     		.space	2
 1086              	.LC11:
 1087 0078 57434C4F 		.ascii	"WCLOSE\000"
 1087      534500
 1088 007f 00       		.space	1
 1089              	.LC12:
 1090 0080 464F4E00 		.ascii	"FON\000"
 1091              	.LC13:
 1092 0084 464F4646 		.ascii	"FOFF\000"
 1092      00
 1093 0089 000000   		.space	3
 1094              	.LC14:
 1095 008c 484F4E00 		.ascii	"HON\000"
 1096              	.LC15:
 1097 0090 484F4646 		.ascii	"HOFF\000"
 1097      00
 1098 0095 000000   		.space	3
 1099              	.LC16:
 1100 0098 45453434 		.ascii	"EE4450 FREERTOS\000"
 1100      35302046 
 1100      52454552 
 1100      544F5300 
 1101              	.LC17:
 1102 00a8 43616E27 		.ascii	"Can't create MsgBuf\000"
 1102      74206372 
 1102      65617465 
 1102      204D7367 
 1102      42756600 
 1103              	.LC18:
 1104 00bc 51554555 		.ascii	"QUEUE ERROR\000"
 1104      45204552 
 1104      524F5200 
 1105              	.LC19:
 1106 00c8 4C434420 		.ascii	"LCD Task\000"
 1106      5461736B 
 1106      00
 1107 00d1 000000   		.space	3
 1108              	.LC20:
 1109 00d4 43616E6E 		.ascii	"Cannot create Task!\000"
 1109      6F742063 
 1109      72656174 
 1109      65205461 
ARM GAS  C:\Users\vincent\AppData\Local\Temp\ccKOzO19.s 			page 30


 1109      736B2100 
 1110              	.LC21:
 1111 00e8 53686F77 		.ascii	"Show Readings\000"
 1111      20526561 
 1111      64696E67 
 1111      7300
 1112 00f6 0000     		.space	2
 1113              	.LC22:
 1114 00f8 55415254 		.ascii	"UART SynC\000"
 1114      2053796E 
 1114      4300
 1115 0102 0000     		.space	2
 1116              	.LC23:
 1117 0104 4164756A 		.ascii	"Adujusting Greenhouse\000"
 1117      75737469 
 1117      6E672047 
 1117      7265656E 
 1117      686F7573 
 1118              		.bss
 1119              		.align	2
 1120              		.set	.LANCHOR0,. + 0
 1121              		.type	state.8341, %object
 1122              		.size	state.8341, 1
 1123              	state.8341:
 1124 0000 00       		.space	1
 1125 0001 000000   		.space	3
 1126              		.type	idx.8342, %object
 1127              		.size	idx.8342, 4
 1128              	idx.8342:
 1129 0004 00000000 		.space	4
 1130              		.type	buf.8340, %object
 1131              		.size	buf.8340, 20
 1132              	buf.8340:
 1133 0008 00000000 		.space	20
 1133      00000000 
 1133      00000000 
 1133      00000000 
 1133      00000000 
 1134              		.type	xMessageBuffer, %object
 1135              		.size	xMessageBuffer, 4
 1136              	xMessageBuffer:
 1137 001c 00000000 		.space	4
 1138              		.type	xQueue, %object
 1139              		.size	xQueue, 4
 1140              	xQueue:
 1141 0020 00000000 		.space	4
 1142              		.text
 1143              	.Letext0:
 1144              		.file 2 "c:\\program files (x86)\\cypress\\psoc creator\\4.4\\psoc creator\\import\\gnu\\arm\\5.4.
 1145              		.file 3 "c:\\program files (x86)\\cypress\\psoc creator\\4.4\\psoc creator\\import\\gnu\\arm\\5.4.
 1146              		.file 4 "c:\\program files (x86)\\cypress\\psoc creator\\4.4\\psoc creator\\import\\gnu\\arm\\5.4.
 1147              		.file 5 "..\\..\\FreeRTOS\\portable\\GCC\\ARM_CM3/portmacro.h"
 1148              		.file 6 "..\\..\\FreeRTOS\\include/task.h"
 1149              		.file 7 "..\\..\\FreeRTOS\\include/queue.h"
 1150              		.file 8 "..\\..\\FreeRTOS\\include/stream_buffer.h"
 1151              		.file 9 "..\\..\\FreeRTOS\\include/message_buffer.h"
 1152              		.file 10 "Generated_Source\\PSoC5/core_cm3.h"
ARM GAS  C:\Users\vincent\AppData\Local\Temp\ccKOzO19.s 			page 31


 1153              		.file 11 "Generated_Source\\PSoC5/UART.h"
 1154              		.file 12 "Generated_Source\\PSoC5/LCD.h"
 1155              		.file 13 "c:\\program files (x86)\\cypress\\psoc creator\\4.4\\psoc creator\\import\\gnu\\arm\\5.4
 1156              		.file 14 "c:\\program files (x86)\\cypress\\psoc creator\\4.4\\psoc creator\\import\\gnu\\arm\\5.4
 1157              		.file 15 "Generated_Source\\PSoC5/UVLight.h"
 1158              		.file 16 "Generated_Source\\PSoC5/SERVOPWM.h"
 1159              		.file 17 "Generated_Source\\PSoC5/Fan.h"
 1160              		.file 18 "Generated_Source\\PSoC5/HeatPad.h"
 1161              		.file 19 "Generated_Source\\PSoC5/CyLib.h"
 1162              		.file 20 "Generated_Source\\PSoC5/ISR_UART.h"
 1163              		.file 21 "Generated_Source\\PSoC5/AMUX.h"
 1164              		.file 22 "Generated_Source\\PSoC5/SARADC.h"
 1165              		.file 23 "..\\..\\FreeRTOS/FreeRTOS_PSoC.h"
 1166              		.file 24 "c:\\program files (x86)\\cypress\\psoc creator\\4.4\\psoc creator\\import\\gnu\\arm\\5.4